(dp0
S'age_groups'
p1
c__builtin__
set
p2
((lp3
S'age_group_3'
p4
aS'age_group_2'
p5
aS'age_group_1'
p6
aS'age_group_6'
p7
aS'age_group_5'
p8
aS'age_group_4'
p9
atp10
Rp11
sS'testing'
p12
(dp13
S'Ile-de-France'
p14
(dp15
S'antibodies'
p16
I3000
sS'molecular'
p17
I3000
sssS'death_cost'
p18
ccopy_reg
_reconstructor
p19
(cpandas.core.frame
DataFrame
p20
c__builtin__
object
p21
Ntp22
Rp23
(dp24
S'_metadata'
p25
(lp26
sS'_typ'
p27
S'dataframe'
p28
sS'_data'
p29
g19
(cpandas.core.internals.managers
BlockManager
p30
g21
Ntp31
Rp32
((lp33
cpandas.core.indexes.base
_new_Index
p34
(cpandas.core.indexes.base
Index
p35
(dp36
S'data'
p37
cnumpy.core.multiarray
_reconstruct
p38
(cnumpy
ndarray
p39
(I0
tp40
S'b'
p41
tp42
Rp43
(I1
(I1
tp44
cnumpy
dtype
p45
(S'O8'
p46
I0
I1
tp47
Rp48
(I3
S'|'
p49
NNNI-1
I-1
I63
tp50
bI00
(lp51
S'death_cost'
p52
atp53
bsS'name'
p54
Nstp55
Rp56
ag34
(g35
(dp57
g37
g38
(g39
(I0
tp58
g41
tp59
Rp60
(I1
(I6
tp61
g48
I00
(lp62
Vage_group_1
p63
aVage_group_2
p64
aVage_group_3
p65
aVage_group_4
p66
aVage_group_5
p67
aVage_group_6
p68
atp69
bsg54
Nstp70
Rp71
a(lp72
g38
(g39
(I0
tp73
g41
tp74
Rp75
(I1
(I1
I6
tp76
g45
(S'i8'
p77
I0
I1
tp78
Rp79
(I3
S'<'
p80
NNNI-1
I-1
I0
tp81
bI00
S'@B\x0f\x00\x00\x00\x00\x00@B\x0f\x00\x00\x00\x00\x00@B\x0f\x00\x00\x00\x00\x00@B\x0f\x00\x00\x00\x00\x00@B\x0f\x00\x00\x00\x00\x00@B\x0f\x00\x00\x00\x00\x00'
p82
tp83
ba(lp84
g34
(g35
(dp85
g37
g38
(g39
(I0
tp86
g41
tp87
Rp88
(I1
(I1
tp89
g48
I00
(lp90
g52
atp91
bsg54
Nstp92
Rp93
a(dp94
S'0.14.1'
p95
(dp96
S'axes'
p97
g33
sS'blocks'
p98
(lp99
(dp100
S'mgr_locs'
p101
c__builtin__
slice
p102
(I0
I1
I1
tp103
Rp104
sS'values'
p105
g75
sasstp106
bsbsS'beta'
p107
cnumpy.core.multiarray
scalar
p108
(g45
(S'f8'
p109
I0
I1
tp110
Rp111
(I3
S'<'
p112
NNNI-1
I-1
I0
tp113
bS'\x16\xd3Z\xf8\xb9\x8e\xaa?'
p114
tp115
Rp116
sS'hospital_icu'
p117
g19
(g20
g21
Ntp118
Rp119
(dp120
g25
g26
sg27
g28
sg29
g19
(g30
g21
Ntp121
Rp122
((lp123
g34
(g35
(dp124
g37
g38
(g39
(I0
tp125
g41
tp126
Rp127
(I1
(I2
tp128
g48
I00
(lp129
S'ICU'
p130
aS'Hospital'
p131
atp132
bsg54
Nstp133
Rp134
ag34
(g35
(dp135
g37
g38
(g39
(I0
tp136
g41
tp137
Rp138
(I1
(I1
tp139
g48
I00
(lp140
VIle-de-France
p141
atp142
bsg54
Nstp143
Rp144
a(lp145
g38
(g39
(I0
tp146
g41
tp147
Rp148
(I1
(I2
I1
tp149
g79
I00
S'\xc4\t\x00\x00\x00\x00\x00\x00\x00-1\x01\x00\x00\x00\x00'
p150
tp151
ba(lp152
g34
(g35
(dp153
g37
g38
(g39
(I0
tp154
g41
tp155
Rp156
(I1
(I2
tp157
g48
I00
(lp158
g130
ag131
atp159
bsg54
Nstp160
Rp161
a(dp162
g95
(dp163
g97
g123
sg98
(lp164
(dp165
g101
g102
(I0
I2
I1
tp166
Rp167
sg105
g148
sasstp168
bsbsS'all_contacts'
p169
(dp170
(S'Ile-de-France'
p171
g9
I3
g171
g9
I1
tp172
g108
(g111
S'\x1f\x86\x14i\xb8\xb9\x07@'
p173
tp174
Rp175
s(g171
g4
I4
g171
g9
I3
tp176
g108
(g111
S'\xed{Y%\x10w\x13@'
p177
tp178
Rp179
s(g171
g7
I0
g171
g6
I3
tp180
g108
(g111
S'\xeb\xbd\xfd\xdf\x83\xb3\xc3?'
p181
tp182
Rp183
s(g171
g6
I3
g171
g8
I1
tp184
g108
(g111
S'\xfc\xca#zK\x96\xeb?'
p185
tp186
Rp187
s(g171
g5
I3
g171
g8
I3
tp188
g108
(g111
S'\x17\xdc\x8cQ\xbbA\x00@'
p189
tp190
Rp191
s(g171
g6
I1
g171
g9
I0
tp192
g108
(g111
S'x$\xc4\xecH\xc6\xf8?'
p193
tp194
Rp195
s(g171
g5
I0
g171
g4
I3
tp196
g108
(g111
S'R\xa4,\xaa<\x1f\xcf?'
p197
tp198
Rp199
s(g171
g9
I1
g171
g9
I4
tp200
g108
(g111
S'\x1f\x86\x14i\xb8\xb9\x07@'
p201
tp202
Rp203
s(g171
g6
I3
g171
g5
I3
tp204
g108
(g111
S'>\x99\xb0\xc0\x96\xb1\xf8?'
p205
tp206
Rp207
s(g171
g8
I1
g171
g9
I4
tp208
g108
(g111
S'\xfa\xe7y\x92\xd5\x17\x02@'
p209
tp210
Rp211
s(g171
g6
I2
g171
g9
I3
tp212
g108
(g111
S'\x832\x81\xad\xa0\x88\n@'
p213
tp214
Rp215
s(g171
g6
I0
g171
g5
I2
tp216
g108
(g111
S',\xc7\x8e9\xd7\xe3\xdb?'
p217
tp218
Rp219
s(g171
g9
I1
g171
g8
I0
tp220
g108
(g111
S'\x99\x18\xe0j\xefN\xe0?'
p221
tp222
Rp223
s(g171
g7
I2
g171
g7
I1
tp224
g108
(g111
S'\xa6X\x1d25<\xf8?'
p225
tp226
Rp227
s(g171
g8
I3
g171
g8
I1
tp228
g108
(g111
S'\xfe$\xf8M\xa5s\xfd?'
p229
tp230
Rp231
s(g171
g4
I0
g171
g8
I2
tp232
g108
(g111
S'6\x94N\x14"\xfc\xe0?'
p233
tp234
Rp235
s(g171
g6
I4
g171
g8
I3
tp236
g108
(g111
S'\x02\xee\xd0\xceR\xbf\xf7?'
p237
tp238
Rp239
s(g171
g9
I4
g171
g4
I1
tp240
g108
(g111
S']\x8fvy20\xe0?'
p241
tp242
Rp243
s(g171
g7
I1
g171
g7
I1
tp244
g108
(g111
S'\xa6X\x1d25<\xf8?'
p245
tp246
Rp247
s(g171
g8
I1
g171
g9
I3
tp248
g108
(g111
S'\xfa\xe7y\x92\xd5\x17\x02@'
p249
tp250
Rp251
s(g171
g8
I4
g171
g8
I2
tp252
g108
(g111
S'*\xa6\xec\x9f]{\x05@'
p253
tp254
Rp255
s(g171
g9
I1
g171
g4
I1
tp256
g108
(g111
S']\x8fvy20\xe0?'
p257
tp258
Rp259
s(g171
g6
I1
g171
g6
I1
tp260
g108
(g111
S'~\x1a\xf8\xaa\x8f>\x01@'
p261
tp262
Rp263
s(g171
g9
I3
g171
g5
I2
tp264
g108
(g111
S'\xaf\xda\xc8\xe8h4\xf9?'
p265
tp266
Rp267
s(g171
g4
I4
g171
g6
I2
tp268
g108
(g111
S'\xe7\x157\xb8B\x04\xeb?'
p269
tp270
Rp271
s(g171
g8
I4
g171
g5
I4
tp272
g108
(g111
S'\xe3\x08\xdd:s\xa8\xf5?'
p273
tp274
Rp275
s(g171
g8
I0
g171
g8
I4
tp276
g108
(g111
S'3\xf1\xce\xf7oP\xee?'
p277
tp278
Rp279
s(g171
g5
I4
g171
g9
I3
tp280
g108
(g111
S'\x12\xf2\xcb\x91\xc8\xb0\x12@'
p281
tp282
Rp283
s(g171
g5
I1
g171
g5
I3
tp284
g108
(g111
S'\x18s\xe1\xb8\xdd\xf6\x11@'
p285
tp286
Rp287
s(g171
g5
I0
g171
g8
I0
tp288
g108
(g111
S'%\x085\xf5\xb7\xd0\xd6?'
p289
tp290
Rp291
s(g171
g5
I2
g171
g9
I1
tp292
g108
(g111
S'!\xa7\xe0~z\n\x08@'
p293
tp294
Rp295
s(g171
g8
I4
g171
g6
I0
tp296
g108
(g111
S'o1v;\xb2H\xcf?'
p297
tp298
Rp299
s(g171
g9
I2
g171
g9
I1
tp300
g108
(g111
S'\x1f\x86\x14i\xb8\xb9\x07@'
p301
tp302
Rp303
s(g171
g6
I2
g171
g5
I0
tp304
g108
(g111
S',\xc7\x8e9\xd7\xe3\xdb?'
p305
tp306
Rp307
s(g171
g6
I0
g171
g9
I3
tp308
g108
(g111
S'x$\xc4\xecH\xc6\xf8?'
p309
tp310
Rp311
s(g171
g8
I2
g171
g4
I1
tp312
g108
(g111
S'\xc3\xb6\xe5t\xfd\x9b\xd9?'
p313
tp314
Rp315
s(g171
g7
I0
g171
g4
I3
tp316
g108
(g111
S'\xd2\x072\x9d\xc2\xd0\xab?'
p317
tp318
Rp319
s(g171
g8
I1
g171
g8
I0
tp320
g108
(g111
S'3\xf1\xce\xf7oP\xee?'
p321
tp322
Rp323
s(g171
g9
I1
g171
g7
I0
tp324
g108
(g111
S'{\xeb\xc8\xde\xef\xb5\xd1?'
p325
tp326
Rp327
s(g171
g6
I3
g171
g9
I3
tp328
g108
(g111
S'u\xda\xb1\r\x94r\r@'
p329
tp330
Rp331
s(g171
g5
I3
g171
g7
I1
tp332
g108
(g111
S'aD5A\\\xd2\xd3?'
p333
tp334
Rp335
s(g171
g4
I1
g171
g7
I0
tp336
g108
(g111
S'\xd6\r\x0fd\x16\x13\xc2?'
p337
tp338
Rp339
s(g171
g7
I2
g171
g9
I0
tp340
g108
(g111
S'\xc3\xdf\xd1\xaa\xf0\xcb\xe1?'
p341
tp342
Rp343
s(g171
g9
I1
g171
g8
I4
tp344
g108
(g111
S"#C^\x82'O\xf5?"
p345
tp346
Rp347
s(g171
g7
I1
g171
g6
I3
tp348
g108
(g111
S'9o\xfd\xe1ww\xcb?'
p349
tp350
Rp351
s(g171
g6
I1
g171
g9
I4
tp352
g108
(g111
S's\xf1_T=\x14\t@'
p353
tp354
Rp355
s(g171
g8
I4
g171
g9
I1
tp356
g108
(g111
S'\xfa\xe7y\x92\xd5\x17\x02@'
p357
tp358
Rp359
s(g171
g9
I2
g171
g6
I0
tp360
g108
(g111
S'\x91\x16\xa7\xfd\xfb\xb7\xe2?'
p361
tp362
Rp363
s(g171
g7
I2
g171
g5
I1
tp364
g108
(g111
S'\xe9qQ\xc4\xff/\xe8?'
p365
tp366
Rp367
s(g171
g9
I1
g171
g6
I0
tp368
g108
(g111
S'\x91\x16\xa7\xfd\xfb\xb7\xe2?'
p369
tp370
Rp371
s(g171
g8
I2
g171
g7
I0
tp372
g108
(g111
S'\x83\x8c\x93\r0\xa6\xdd?'
p373
tp374
Rp375
s(g171
g9
I1
g171
g8
I3
tp376
g108
(g111
S"#C^\x82'O\xf5?"
p377
tp378
Rp379
s(g171
g8
I0
g171
g4
I1
tp380
g108
(g111
S'?\xa4\xe6h\x1e\x16\xc6?'
p381
tp382
Rp383
s(g171
g6
I4
g171
g7
I1
tp384
g108
(g111
S'\x1a]d\x95\xab\x16\xd2?'
p385
tp386
Rp387
s(g171
g4
I3
g171
g8
I4
tp388
g108
(g111
S'\x86@\xd2\xb1\xeb\xaa\x01@'
p389
tp390
Rp391
s(g171
g5
I3
g171
g6
I2
tp392
g108
(g111
S'[\xec\x0e\x102\x9a\xf7?'
p393
tp394
Rp395
s(g171
g4
I1
g171
g4
I1
tp396
g108
(g111
S'%\xe3H\xee3\x92\x01@'
p397
tp398
Rp399
s(g171
g4
I3
g171
g7
I0
tp400
g108
(g111
S'\xd6\r\x0fd\x16\x13\xc2?'
p401
tp402
Rp403
s(g171
g9
I4
g171
g7
I1
tp404
g108
(g111
S',\xec>\x96\x8e\xe1\xe1?'
p405
tp406
Rp407
s(g171
g8
I3
g171
g5
I1
tp408
g108
(g111
S'\x877\x1d\xc29|\xf2?'
p409
tp410
Rp411
s(g171
g5
I1
g171
g4
I1
tp412
g108
(g111
S'\x0c\xbd1K\x8b\xbf\xe3?'
p413
tp414
Rp415
s(g171
g5
I0
g171
g9
I0
tp416
g108
(g111
S' \xfc\x900\xadC\xf5?'
p417
tp418
Rp419
s(g171
g5
I2
g171
g4
I3
tp420
g108
(g111
S'\x04Q\xd8kG\xb7\xef?'
p421
tp422
Rp423
s(g171
g8
I4
g171
g5
I0
tp424
g108
(g111
S'\xafw&^\xbbm\xcc?'
p425
tp426
Rp427
s(g171
g6
I2
g171
g4
I0
tp428
g108
(g111
S'0\xba\xa9o\x15n\xb3?'
p429
tp430
Rp431
s(g171
g6
I0
g171
g8
I1
tp432
g108
(g111
S'\xce\xbb*4\xe4a\xd8?'
p433
tp434
Rp435
s(g171
g4
I0
g171
g6
I1
tp436
g108
(g111
S'f\x08\xd9\x01\xe9+\xc3?'
p437
tp438
Rp439
s(g171
g6
I4
g171
g6
I2
tp440
g108
(g111
S'\x01ZU\xed\x18\xda\x06@'
p441
tp442
Rp443
s(g171
g8
I1
g171
g6
I0
tp444
g108
(g111
S'o1v;\xb2H\xcf?'
p445
tp446
Rp447
s(g171
g9
I4
g171
g6
I4
tp448
g108
(g111
S'\x9cd\x18\xfaws\xf8?'
p449
tp450
Rp451
s(g171
g6
I2
g171
g5
I4
tp452
g108
(g111
S'\x94k}_\xd9\xeb\xf6?'
p453
tp454
Rp455
s(g171
g9
I4
g171
g6
I3
tp456
g108
(g111
S'\x99\xdc\xd4u\xdb?\xf6?'
p457
tp458
Rp459
s(g171
g7
I1
g171
g9
I1
tp460
g108
(g111
S'\x8f\xf6{a\xb75\xe2?'
p461
tp462
Rp463
s(g171
g4
I3
g171
g4
I1
tp464
g108
(g111
S'%\xe3H\xee3\x92\x01@'
p465
tp466
Rp467
s(g171
g9
I3
g171
g8
I3
tp468
g108
(g111
S'pp\x01\xe6\xb0\x9a\x04@'
p469
tp470
Rp471
s(g171
g4
I4
g171
g8
I1
tp472
g108
(g111
S'\x1f\x7f\x1b\xcb\xb0\xb1\xf3?'
p473
tp474
Rp475
s(g171
g8
I3
g171
g4
I2
tp476
g108
(g111
S'\xfc\x01?lD\xdb\xe3?'
p477
tp478
Rp479
s(g171
g5
I1
g171
g7
I0
tp480
g108
(g111
S'\xff\xec\xf5\xf9G\xa6\xca?'
p481
tp482
Rp483
s(g171
g7
I1
g171
g8
I3
tp484
g108
(g111
S'}\xc0s+\xfds\xee?'
p485
tp486
Rp487
s(g171
g7
I1
g171
g6
I0
tp488
g108
(g111
S'\xeb\xbd\xfd\xdf\x83\xb3\xc3?'
p489
tp490
Rp491
s(g171
g5
I0
g171
g5
I1
tp492
g108
(g111
S'\xd8<\xd1P\xfeR\xf1?'
p493
tp494
Rp495
s(g171
g5
I4
g171
g6
I2
tp496
g108
(g111
S'[\xec\x0e\x102\x9a\xf7?'
p497
tp498
Rp499
s(g171
g4
I2
g171
g6
I3
tp500
g108
(g111
S'\xe7\x157\xb8B\x04\xeb?'
p501
tp502
Rp503
s(g171
g6
I2
g171
g8
I1
tp504
g108
(g111
S'\xfc\xca#zK\x96\xeb?'
p505
tp506
Rp507
s(g171
g6
I0
g171
g4
I2
tp508
g108
(g111
S'0\xba\xa9o\x15n\xb3?'
p509
tp510
Rp511
s(g171
g9
I2
g171
g6
I4
tp512
g108
(g111
S'\x97T\x91\xf1>\x0c\xf4?'
p513
tp514
Rp515
s(g171
g8
I0
g171
g9
I3
tp516
g108
(g111
S'\xfa\xd9X5\xaa\xb1\xeb?'
p517
tp518
Rp519
s(g171
g7
I1
g171
g4
I2
tp520
g108
(g111
S'a\x13\x14\x95\xc5\xde\xaf?'
p521
tp522
Rp523
s(g171
g5
I3
g171
g5
I2
tp524
g108
(g111
S'\xdce\xd7\x0bB\x9e\x1a@'
p525
tp526
Rp527
s(g171
g8
I1
g171
g5
I2
tp528
g108
(g111
S'dT\x8e\x16\x0c\xe6\xe6?'
p529
tp530
Rp531
s(g171
g4
I3
g171
g8
I0
tp532
g108
(g111
S'6\x94N\x14"\xfc\xe0?'
p533
tp534
Rp535
s(g171
g8
I1
g171
g8
I3
tp536
g108
(g111
S'\xfe$\xf8M\xa5s\xfd?'
p537
tp538
Rp539
s(g171
g9
I4
g171
g5
I1
tp540
g108
(g111
S'\x1d\xb0\x18B\xed\xf1\xf7?'
p541
tp542
Rp543
s(g171
g6
I3
g171
g6
I2
tp544
g108
(g111
S'\x01ZU\xed\x18\xda\x06@'
p545
tp546
Rp547
s(g171
g5
I2
g171
g6
I3
tp548
g108
(g111
S'[\xec\x0e\x102\x9a\xf7?'
p549
tp550
Rp551
s(g171
g8
I1
g171
g4
I2
tp552
g108
(g111
S'\xc3\xb6\xe5t\xfd\x9b\xd9?'
p553
tp554
Rp555
s(g171
g6
I2
g171
g6
I4
tp556
g108
(g111
S'\x01ZU\xed\x18\xda\x06@'
p557
tp558
Rp559
s(g171
g5
I2
g171
g5
I1
tp560
g108
(g111
S'\x18s\xe1\xb8\xdd\xf6\x11@'
p561
tp562
Rp563
s(g171
g8
I4
g171
g4
I0
tp564
g108
(g111
S'?\xa4\xe6h\x1e\x16\xc6?'
p565
tp566
Rp567
s(g171
g9
I2
g171
g7
I1
tp568
g108
(g111
S'0\x8aR\xce3\x1f\xd2?'
p569
tp570
Rp571
s(g171
g7
I2
g171
g6
I0
tp572
g108
(g111
S'\xeb\xbd\xfd\xdf\x83\xb3\xc3?'
p573
tp574
Rp575
s(g171
g7
I1
g171
g5
I3
tp576
g108
(g111
S'\xfe.\xdd8\xdc:\xcd?'
p577
tp578
Rp579
s(g171
g5
I0
g171
g9
I4
tp580
g108
(g111
S' \xfc\x900\xadC\xf5?'
p581
tp582
Rp583
s(g171
g9
I3
g171
g4
I2
tp584
g108
(g111
S'\xef\n\xa3\xda\xdek\xe8?'
p585
tp586
Rp587
s(g171
g6
I4
g171
g5
I2
tp588
g108
(g111
S'\x94k}_\xd9\xeb\xf6?'
p589
tp590
Rp591
s(g171
g5
I3
g171
g6
I1
tp592
g108
(g111
S'\x0e\x95g\xd8\\H\xf6?'
p593
tp594
Rp595
s(g171
g4
I0
g171
g9
I1
tp596
g108
(g111
S'7)\xeek\xf5\x89\xf1?'
p597
tp598
Rp599
s(g171
g6
I2
g171
g4
I4
tp600
g108
(g111
S'd\xa4\xcdI\x83a\xdb?'
p601
tp602
Rp603
s(g171
g9
I3
g171
g8
I4
tp604
g108
(g111
S'pp\x01\xe6\xb0\x9a\x04@'
p605
tp606
Rp607
s(g171
g8
I3
g171
g5
I4
tp608
g108
(g111
S'\xe7\xfb4c\xa8A\xf4?'
p609
tp610
Rp611
s(g171
g7
I0
g171
g5
I1
tp612
g108
(g111
S';\xa7\xad@5\xa6\xc3?'
p613
tp614
Rp615
s(g171
g9
I4
g171
g6
I0
tp616
g108
(g111
S'\x91\x16\xa7\xfd\xfb\xb7\xe2?'
p617
tp618
Rp619
s(g171
g4
I3
g171
g5
I3
tp620
g108
(g111
S'\xe2]\x02l\xa5;\x01@'
p621
tp622
Rp623
s(g171
g4
I4
g171
g5
I3
tp624
g108
(g111
S'\xe2]\x02l\xa5;\x01@'
p625
tp626
Rp627
s(g171
g9
I2
g171
g5
I4
tp628
g108
(g111
S'\xaf\xda\xc8\xe8h4\xf9?'
p629
tp630
Rp631
s(g171
g5
I4
g171
g4
I2
tp632
g108
(g111
S'\x04Q\xd8kG\xb7\xef?'
p633
tp634
Rp635
s(g171
g9
I0
g171
g8
I3
tp636
g108
(g111
S'\x99\x18\xe0j\xefN\xe0?'
p637
tp638
Rp639
s(g171
g8
I2
g171
g8
I4
tp640
g108
(g111
S'*\xa6\xec\x9f]{\x05@'
p641
tp642
Rp643
s(g171
g8
I4
g171
g7
I1
tp644
g108
(g111
S'`\xd8\xce\xd1h\xbb\xe9?'
p645
tp646
Rp647
s(g171
g9
I2
g171
g4
I0
tp648
g108
(g111
S'\x91\x0c\x90\x9d[\xdc\xca?'
p649
tp650
Rp651
s(g171
g4
I2
g171
g5
I1
tp652
g108
(g111
S'\x00\xbb\x9a\xf7\xc6x\xfb?'
p653
tp654
Rp655
s(g171
g9
I0
g171
g7
I1
tp656
g108
(g111
S'{\xeb\xc8\xde\xef\xb5\xd1?'
p657
tp658
Rp659
s(g171
g8
I2
g171
g8
I0
tp660
g108
(g111
S'3\xf1\xce\xf7oP\xee?'
p661
tp662
Rp663
s(g171
g8
I2
g171
g9
I0
tp664
g108
(g111
S'\xfa\xd9X5\xaa\xb1\xeb?'
p665
tp666
Rp667
s(g171
g8
I0
g171
g8
I1
tp668
g108
(g111
S'3\xf1\xce\xf7oP\xee?'
p669
tp670
Rp671
s(g171
g6
I3
g171
g4
I2
tp672
g108
(g111
S'd\xa4\xcdI\x83a\xdb?'
p673
tp674
Rp675
s(g171
g4
I1
g171
g8
I1
tp676
g108
(g111
S'\x1f\x7f\x1b\xcb\xb0\xb1\xf3?'
p677
tp678
Rp679
s(g171
g8
I1
g171
g6
I2
tp680
g108
(g111
S'\xde;D\xed\xa8\xb2\xe1?'
p681
tp682
Rp683
s(g171
g9
I3
g171
g6
I2
tp684
g108
(g111
S'\x97T\x91\xf1>\x0c\xf4?'
p685
tp686
Rp687
s(g171
g4
I3
g171
g9
I0
tp688
g108
(g111
S'7)\xeek\xf5\x89\xf1?'
p689
tp690
Rp691
s(g171
g5
I0
g171
g6
I4
tp692
g108
(g111
S'vN^\x14\xfb\xb7\xdc?'
p693
tp694
Rp695
s(g171
g4
I1
g171
g5
I3
tp696
g108
(g111
S'\xa86\xff\xb3\xae\x9d\xf5?'
p697
tp698
Rp699
s(g171
g5
I1
g171
g6
I1
tp700
g108
(g111
S'\x0e\x95g\xd8\\H\xf6?'
p701
tp702
Rp703
s(g171
g5
I0
g171
g7
I0
tp704
g108
(g111
S'\xff\xec\xf5\xf9G\xa6\xca?'
p705
tp706
Rp707
s(g171
g9
I4
g171
g5
I3
tp708
g108
(g111
S'\x82\x03\xb1\x03\xc3m\xfb?'
p709
tp710
Rp711
s(g171
g4
I2
g171
g8
I2
tp712
g108
(g111
S'2/\xfa\xf2E\x8a\xfe?'
p713
tp714
Rp715
s(g171
g9
I0
g171
g4
I0
tp716
g108
(g111
S'\x91\x0c\x90\x9d[\xdc\xca?'
p717
tp718
Rp719
s(g171
g6
I2
g171
g6
I0
tp720
g108
(g111
S'\xf0\x0fU\xce\xe2/\xeb?'
p721
tp722
Rp723
s(g171
g7
I2
g171
g9
I4
tp724
g108
(g111
S'\xe8\xee\xf3\x12\xe1|\x06@'
p725
tp726
Rp727
s(g171
g4
I2
g171
g9
I2
tp728
g108
(g111
S'\xca\xb1\xd3Td\xe4\x0f@'
p729
tp730
Rp731
s(g171
g8
I4
g171
g4
I4
tp732
g108
(g111
S'9\xe2\xa7\xcf\x8a\x17\xea?'
p733
tp734
Rp735
s(g171
g7
I0
g171
g9
I3
tp736
g108
(g111
S'\xc3\xdf\xd1\xaa\xf0\xcb\xe1?'
p737
tp738
Rp739
s(g171
g7
I2
g171
g6
I4
tp740
g108
(g111
S'\x84\x81\xf7q\xb2^\xe4?'
p741
tp742
Rp743
s(g171
g7
I0
g171
g8
I3
tp744
g108
(g111
S'\xc8\xda\xd7\\_\x8b\xe1?'
p745
tp746
Rp747
s(g171
g5
I1
g171
g8
I4
tp748
g108
(g111
S'\xf2Q\xb8\xa1\xa9\xab\xfd?'
p749
tp750
Rp751
s(g171
g4
I3
g171
g6
I1
tp752
g108
(g111
S'XL\xca\xb9\xc3t\xea?'
p753
tp754
Rp755
s(g171
g4
I4
g171
g4
I1
tp756
g108
(g111
S'%\xe3H\xee3\x92\x01@'
p757
tp758
Rp759
s(g171
g9
I1
g171
g9
I1
tp760
g108
(g111
S'\x1f\x86\x14i\xb8\xb9\x07@'
p761
tp762
Rp763
s(g171
g9
I2
g171
g8
I4
tp764
g108
(g111
S'\xa14zrb\xe2\x00@'
p765
tp766
Rp767
s(g171
g5
I1
g171
g9
I0
tp768
g108
(g111
S' \xfc\x900\xadC\xf5?'
p769
tp770
Rp771
s(g171
g7
I2
g171
g8
I3
tp772
g108
(g111
S'\xbaC\t-\xc4S\xfc?'
p773
tp774
Rp775
s(g171
g8
I2
g171
g5
I4
tp776
g108
(g111
S'\xea\xee\x8c\x8b\xdd\xda\xf2?'
p777
tp778
Rp779
s(g171
g5
I2
g171
g7
I0
tp780
g108
(g111
S'\xff\xec\xf5\xf9G\xa6\xca?'
p781
tp782
Rp783
s(g171
g9
I2
g171
g5
I0
tp784
g108
(g111
S'd\x8d\xf62\xb34\xdf?'
p785
tp786
Rp787
s(g171
g8
I2
g171
g6
I0
tp788
g108
(g111
S'o1v;\xb2H\xcf?'
p789
tp790
Rp791
s(g171
g4
I0
g171
g5
I0
tp792
g108
(g111
S"'\xd9\x0f\xa5h\xd2\xdd?"
p793
tp794
Rp795
s(g171
g8
I3
g171
g6
I1
tp796
g108
(g111
S'\xfd\xca\x95\xc05N\xea?'
p797
tp798
Rp799
s(g171
g9
I2
g171
g4
I4
tp800
g108
(g111
S'\xef\n\xa3\xda\xdek\xe8?'
p801
tp802
Rp803
s(g171
g7
I2
g171
g9
I2
tp804
g108
(g111
S'\xb4\x11\x97`\xee?\xfb?'
p805
tp806
Rp807
s(g171
g8
I2
g171
g9
I4
tp808
g108
(g111
S'\xa5\x7fhP\x0e\xac\x0c@'
p809
tp810
Rp811
s(g171
g8
I4
g171
g8
I0
tp812
g108
(g111
S'3\xf1\xce\xf7oP\xee?'
p813
tp814
Rp815
s(g171
g9
I4
g171
g8
I1
tp816
g108
(g111
S"#C^\x82'O\xf5?"
p817
tp818
Rp819
s(g171
g4
I1
g171
g9
I3
tp820
g108
(g111
S'h\x94\xca\xcd\xf4#\x05@'
p821
tp822
Rp823
s(g171
g6
I1
g171
g8
I1
tp824
g108
(g111
S'\xb3m\xd2\x89\xd2\xfc\xea?'
p825
tp826
Rp827
s(g171
g9
I3
g171
g7
I2
tp828
g108
(g111
S'\xc1p`#\x19\xf8\xf1?'
p829
tp830
Rp831
s(g171
g4
I4
g171
g7
I0
tp832
g108
(g111
S'\xd6\r\x0fd\x16\x13\xc2?'
p833
tp834
Rp835
s(g171
g5
I3
g171
g4
I2
tp836
g108
(g111
S'\x04Q\xd8kG\xb7\xef?'
p837
tp838
Rp839
s(g171
g9
I4
g171
g8
I4
tp840
g108
(g111
S'?\xac\x88Y\xffR\x08@'
p841
tp842
Rp843
s(g171
g4
I3
g171
g9
I4
tp844
g108
(g111
S'\xed{Y%\x10w\x13@'
p845
tp846
Rp847
s(g171
g5
I0
g171
g6
I0
tp848
g108
(g111
S'vN^\x14\xfb\xb7\xdc?'
p849
tp850
Rp851
s(g171
g6
I1
g171
g4
I0
tp852
g108
(g111
S'0\xba\xa9o\x15n\xb3?'
p853
tp854
Rp855
s(g171
g4
I2
g171
g7
I2
tp856
g108
(g111
S'Oa\x07\x99\x83\x89\xed?'
p857
tp858
Rp859
s(g171
g9
I0
g171
g5
I0
tp860
g108
(g111
S'd\x8d\xf62\xb34\xdf?'
p861
tp862
Rp863
s(g171
g6
I2
g171
g7
I0
tp864
g108
(g111
S'\xe7\xbfb\xe1\xf3\xf2\xc9?'
p865
tp866
Rp867
s(g171
g8
I0
g171
g6
I0
tp868
g108
(g111
S'o1v;\xb2H\xcf?'
p869
tp870
Rp871
s(g171
g7
I2
g171
g8
I1
tp872
g108
(g111
S')\xb6\x12\xcaH6\xef?'
p873
tp874
Rp875
s(g171
g9
I0
g171
g4
I4
tp876
g108
(g111
S'\x91\x0c\x90\x9d[\xdc\xca?'
p877
tp878
Rp879
s(g171
g6
I4
g171
g4
I2
tp880
g108
(g111
S'd\xa4\xcdI\x83a\xdb?'
p881
tp882
Rp883
s(g171
g7
I0
g171
g9
I1
tp884
g108
(g111
S'\xc3\xdf\xd1\xaa\xf0\xcb\xe1?'
p885
tp886
Rp887
s(g171
g6
I1
g171
g5
I2
tp888
g108
(g111
S'?-\xb3\xab\xc3\xa3\xf5?'
p889
tp890
Rp891
s(g171
g5
I1
g171
g5
I4
tp892
g108
(g111
S'\x18s\xe1\xb8\xdd\xf6\x11@'
p893
tp894
Rp895
s(g171
g8
I3
g171
g5
I3
tp896
g108
(g111
S'\xe7\xfb4c\xa8A\xf4?'
p897
tp898
Rp899
s(g171
g7
I2
g171
g4
I0
tp900
g108
(g111
S'\xd2\x072\x9d\xc2\xd0\xab?'
p901
tp902
Rp903
s(g171
g5
I2
g171
g9
I4
tp904
g108
(g111
S'V\x06@\x81\xd0,\x11@'
p905
tp906
Rp907
s(g171
g9
I2
g171
g9
I4
tp908
g108
(g111
S'\xb9\x94\xaaS\xbfr\x12@'
p909
tp910
Rp911
s(g171
g6
I1
g171
g4
I2
tp912
g108
(g111
S'\xe7J\xbb\xfe\x14\xd0\xda?'
p913
tp914
Rp915
s(g171
g5
I1
g171
g8
I0
tp916
g108
(g111
S'%\x085\xf5\xb7\xd0\xd6?'
p917
tp918
Rp919
s(g171
g8
I2
g171
g4
I4
tp920
g108
(g111
S'\xfc\x01?lD\xdb\xe3?'
p921
tp922
Rp923
s(g171
g5
I2
g171
g8
I0
tp924
g108
(g111
S'%\x085\xf5\xb7\xd0\xd6?'
p925
tp926
Rp927
s(g171
g9
I2
g171
g8
I0
tp928
g108
(g111
S'\x99\x18\xe0j\xefN\xe0?'
p929
tp930
Rp931
s(g171
g5
I4
g171
g5
I2
tp932
g108
(g111
S'\xdce\xd7\x0bB\x9e\x1a@'
p933
tp934
Rp935
s(g171
g5
I1
g171
g9
I4
tp936
g108
(g111
S'e\x98\x08C\x11Q\x10@'
p937
tp938
Rp939
s(g171
g9
I0
g171
g9
I1
tp940
g108
(g111
S'\xe7\x9a\x98\xdb\x06\xab\xf2?'
p941
tp942
Rp943
s(g171
g4
I0
g171
g4
I0
tp944
g108
(g111
S'\xb5\\M\xfa\xa3l\xea?'
p945
tp946
Rp947
s(g171
g9
I1
g171
g6
I3
tp948
g108
(g111
S'\xc2\xf1\xb1\xf3\rv\xef?'
p949
tp950
Rp951
s(g171
g8
I2
g171
g5
I0
tp952
g108
(g111
S'\xafw&^\xbbm\xcc?'
p953
tp954
Rp955
s(g171
g4
I2
g171
g4
I3
tp956
g108
(g111
S'`\xe5\xcf\xce5\xfa\x03@'
p957
tp958
Rp959
s(g171
g4
I0
g171
g5
I4
tp960
g108
(g111
S"'\xd9\x0f\xa5h\xd2\xdd?"
p961
tp962
Rp963
s(g171
g7
I0
g171
g6
I0
tp964
g108
(g111
S'\xeb\xbd\xfd\xdf\x83\xb3\xc3?'
p965
tp966
Rp967
s(g171
g8
I3
g171
g4
I0
tp968
g108
(g111
S'?\xa4\xe6h\x1e\x16\xc6?'
p969
tp970
Rp971
s(g171
g5
I3
g171
g8
I2
tp972
g108
(g111
S'D\xf1#|\x91C\xfe?'
p973
tp974
Rp975
s(g171
g5
I0
g171
g4
I4
tp976
g108
(g111
S'R\xa4,\xaa<\x1f\xcf?'
p977
tp978
Rp979
s(g171
g6
I3
g171
g5
I2
tp980
g108
(g111
S'\x94k}_\xd9\xeb\xf6?'
p981
tp982
Rp983
s(g171
g5
I3
g171
g9
I2
tp984
g108
(g111
S'V\x06@\x81\xd0,\x11@'
p985
tp986
Rp987
s(g171
g6
I2
g171
g9
I4
tp988
g108
(g111
S'\x832\x81\xad\xa0\x88\n@'
p989
tp990
Rp991
s(g171
g6
I0
g171
g5
I3
tp992
g108
(g111
S',\xc7\x8e9\xd7\xe3\xdb?'
p993
tp994
Rp995
s(g171
g8
I0
g171
g4
I4
tp996
g108
(g111
S'?\xa4\xe6h\x1e\x16\xc6?'
p997
tp998
Rp999
s(g171
g9
I0
g171
g6
I0
tp1000
g108
(g111
S'\x91\x16\xa7\xfd\xfb\xb7\xe2?'
p1001
tp1002
Rp1003
s(g171
g7
I2
g171
g7
I0
tp1004
g108
(g111
S'\x90x\xe3\x83*\xf1\xec?'
p1005
tp1006
Rp1007
s(g171
g6
I0
g171
g6
I1
tp1008
g108
(g111
S'\xf0\x0fU\xce\xe2/\xeb?'
p1009
tp1010
Rp1011
s(g171
g9
I4
g171
g8
I3
tp1012
g108
(g111
S'pp\x01\xe6\xb0\x9a\x04@'
p1013
tp1014
Rp1015
s(g171
g4
I0
g171
g8
I1
tp1016
g108
(g111
S'6\x94N\x14"\xfc\xe0?'
p1017
tp1018
Rp1019
s(g171
g8
I0
g171
g5
I0
tp1020
g108
(g111
S'\xafw&^\xbbm\xcc?'
p1021
tp1022
Rp1023
s(g171
g6
I4
g171
g8
I2
tp1024
g108
(g111
S'\xc0\xbe\xc7|Y\xe4\xf4?'
p1025
tp1026
Rp1027
s(g171
g9
I0
g171
g5
I4
tp1028
g108
(g111
S'd\x8d\xf62\xb34\xdf?'
p1029
tp1030
Rp1031
s(g171
g8
I0
g171
g6
I4
tp1032
g108
(g111
S'o1v;\xb2H\xcf?'
p1033
tp1034
Rp1035
s(g171
g6
I4
g171
g9
I2
tp1036
g108
(g111
S'\x832\x81\xad\xa0\x88\n@'
p1037
tp1038
Rp1039
s(g171
g9
I1
g171
g4
I0
tp1040
g108
(g111
S'\x91\x0c\x90\x9d[\xdc\xca?'
p1041
tp1042
Rp1043
s(g171
g6
I1
g171
g6
I2
tp1044
g108
(g111
S'~\x1a\xf8\xaa\x8f>\x01@'
p1045
tp1046
Rp1047
s(g171
g5
I1
g171
g4
I4
tp1048
g108
(g111
S'\xc9\xa1\x8bv`\xab\xec?'
p1049
tp1050
Rp1051
s(g171
g7
I0
g171
g7
I0
tp1052
g108
(g111
S'\x90x\xe3\x83*\xf1\xec?'
p1053
tp1054
Rp1055
s(g171
g4
I4
g171
g6
I1
tp1056
g108
(g111
S'XL\xca\xb9\xc3t\xea?'
p1057
tp1058
Rp1059
s(g171
g9
I0
g171
g8
I4
tp1060
g108
(g111
S'\x99\x18\xe0j\xefN\xe0?'
p1061
tp1062
Rp1063
s(g171
g4
I1
g171
g6
I2
tp1064
g108
(g111
S'\xed\x9f\xbaP\xb5`\xe0?'
p1065
tp1066
Rp1067
s(g171
g5
I4
g171
g9
I2
tp1068
g108
(g111
S'V\x06@\x81\xd0,\x11@'
p1069
tp1070
Rp1071
s(g171
g5
I1
g171
g5
I0
tp1072
g108
(g111
S'\xd8<\xd1P\xfeR\xf1?'
p1073
tp1074
Rp1075
s(g171
g5
I0
g171
g8
I1
tp1076
g108
(g111
S'%\x085\xf5\xb7\xd0\xd6?'
p1077
tp1078
Rp1079
s(g171
g5
I2
g171
g9
I0
tp1080
g108
(g111
S' \xfc\x900\xadC\xf5?'
p1081
tp1082
Rp1083
s(g171
g8
I4
g171
g6
I3
tp1084
g108
(g111
S'\xd2\xd0\xae\xc8\x1cx\xee?'
p1085
tp1086
Rp1087
s(g171
g9
I2
g171
g9
I0
tp1088
g108
(g111
S'\xe7\x9a\x98\xdb\x06\xab\xf2?'
p1089
tp1090
Rp1091
s(g171
g5
I4
g171
g8
I2
tp1092
g108
(g111
S'D\xf1#|\x91C\xfe?'
p1093
tp1094
Rp1095
s(g171
g6
I2
g171
g5
I1
tp1096
g108
(g111
S'?-\xb3\xab\xc3\xa3\xf5?'
p1097
tp1098
Rp1099
s(g171
g6
I0
g171
g9
I0
tp1100
g108
(g111
S'x$\xc4\xecH\xc6\xf8?'
p1101
tp1102
Rp1103
s(g171
g8
I2
g171
g4
I0
tp1104
g108
(g111
S'?\xa4\xe6h\x1e\x16\xc6?'
p1105
tp1106
Rp1107
s(g171
g5
I2
g171
g8
I4
tp1108
g108
(g111
S'D\xf1#|\x91C\xfe?'
p1109
tp1110
Rp1111
s(g171
g4
I0
g171
g4
I4
tp1112
g108
(g111
S'\xb5\\M\xfa\xa3l\xea?'
p1113
tp1114
Rp1115
s(g171
g4
I4
g171
g8
I4
tp1116
g108
(g111
S"ri'j\xb4\x10\x04@"
p1117
tp1118
Rp1119
s(g171
g9
I1
g171
g7
I1
tp1120
g108
(g111
S'0\x8aR\xce3\x1f\xd2?'
p1121
tp1122
Rp1123
s(g171
g6
I3
g171
g9
I2
tp1124
g108
(g111
S'\x832\x81\xad\xa0\x88\n@'
p1125
tp1126
Rp1127
s(g171
g5
I3
g171
g7
I2
tp1128
g108
(g111
S'\xe6H\xcd:\x86\x08\xf2?'
p1129
tp1130
Rp1131
s(g171
g4
I4
g171
g9
I0
tp1132
g108
(g111
S'7)\xeek\xf5\x89\xf1?'
p1133
tp1134
Rp1135
s(g171
g7
I0
g171
g6
I4
tp1136
g108
(g111
S'\xeb\xbd\xfd\xdf\x83\xb3\xc3?'
p1137
tp1138
Rp1139
s(g171
g6
I3
g171
g8
I2
tp1140
g108
(g111
S'\xc0\xbe\xc7|Y\xe4\xf4?'
p1141
tp1142
Rp1143
s(g171
g6
I1
g171
g9
I3
tp1144
g108
(g111
S's\xf1_T=\x14\t@'
p1145
tp1146
Rp1147
s(g171
g8
I2
g171
g8
I2
tp1148
g108
(g111
S'*\xa6\xec\x9f]{\x05@'
p1149
tp1150
Rp1151
s(g171
g5
I0
g171
g4
I0
tp1152
g108
(g111
S'R\xa4,\xaa<\x1f\xcf?'
p1153
tp1154
Rp1155
s(g171
g9
I2
g171
g6
I1
tp1156
g108
(g111
S'\x14w\xb1F\xe2\xf2\xf2?'
p1157
tp1158
Rp1159
s(g171
g8
I0
g171
g9
I4
tp1160
g108
(g111
S'\xfa\xd9X5\xaa\xb1\xeb?'
p1161
tp1162
Rp1163
s(g171
g6
I2
g171
g9
I0
tp1164
g108
(g111
S'x$\xc4\xecH\xc6\xf8?'
p1165
tp1166
Rp1167
s(g171
g8
I2
g171
g7
I1
tp1168
g108
(g111
S'\x88\x16A\xda\xebI\xde?'
p1169
tp1170
Rp1171
s(g171
g8
I0
g171
g4
I0
tp1172
g108
(g111
S'?\xa4\xe6h\x1e\x16\xc6?'
p1173
tp1174
Rp1175
s(g171
g6
I4
g171
g7
I2
tp1176
g108
(g111
S'p\x11W\xcbk\xd4\xea?'
p1177
tp1178
Rp1179
s(g171
g9
I0
g171
g6
I4
tp1180
g108
(g111
S'\x91\x16\xa7\xfd\xfb\xb7\xe2?'
p1181
tp1182
Rp1183
s(g171
g8
I3
g171
g8
I2
tp1184
g108
(g111
S'*\xa6\xec\x9f]{\x05@'
p1185
tp1186
Rp1187
s(g171
g9
I3
g171
g5
I4
tp1188
g108
(g111
S'\x82\x03\xb1\x03\xc3m\xfb?'
p1189
tp1190
Rp1191
s(g171
g8
I0
g171
g5
I4
tp1192
g108
(g111
S'\xafw&^\xbbm\xcc?'
p1193
tp1194
Rp1195
s(g171
g4
I1
g171
g4
I2
tp1196
g108
(g111
S'%\xe3H\xee3\x92\x01@'
p1197
tp1198
Rp1199
s(g171
g9
I3
g171
g4
I1
tp1200
g108
(g111
S']\x8fvy20\xe0?'
p1201
tp1202
Rp1203
s(g171
g5
I2
g171
g5
I4
tp1204
g108
(g111
S'\xdce\xd7\x0bB\x9e\x1a@'
p1205
tp1206
Rp1207
s(g171
g9
I1
g171
g4
I4
tp1208
g108
(g111
S']\x8fvy20\xe0?'
p1209
tp1210
Rp1211
s(g171
g8
I1
g171
g9
I1
tp1212
g108
(g111
S'\xfa\xe7y\x92\xd5\x17\x02@'
p1213
tp1214
Rp1215
s(g171
g5
I1
g171
g4
I0
tp1216
g108
(g111
S'R\xa4,\xaa<\x1f\xcf?'
p1217
tp1218
Rp1219
s(g171
g5
I0
g171
g9
I3
tp1220
g108
(g111
S' \xfc\x900\xadC\xf5?'
p1221
tp1222
Rp1223
s(g171
g9
I4
g171
g9
I3
tp1224
g108
(g111
S'\xd2#\xe2\x8a5\xf2\x16@'
p1225
tp1226
Rp1227
s(g171
g5
I2
g171
g4
I0
tp1228
g108
(g111
S'R\xa4,\xaa<\x1f\xcf?'
p1229
tp1230
Rp1231
s(g171
g8
I4
g171
g5
I1
tp1232
g108
(g111
S'\x877\x1d\xc29|\xf2?'
p1233
tp1234
Rp1235
s(g171
g6
I2
g171
g4
I3
tp1236
g108
(g111
S'd\xa4\xcdI\x83a\xdb?'
p1237
tp1238
Rp1239
s(g171
g6
I0
g171
g8
I0
tp1240
g108
(g111
S'\xce\xbb*4\xe4a\xd8?'
p1241
tp1242
Rp1243
s(g171
g4
I0
g171
g6
I0
tp1244
g108
(g111
S'f\x08\xd9\x01\xe9+\xc3?'
p1245
tp1246
Rp1247
s(g171
g7
I0
g171
g5
I4
tp1248
g108
(g111
S';\xa7\xad@5\xa6\xc3?'
p1249
tp1250
Rp1251
s(g171
g9
I4
g171
g9
I2
tp1252
g108
(g111
S'\xb9\x94\xaaS\xbfr\x12@'
p1253
tp1254
Rp1255
s(g171
g6
I0
g171
g9
I4
tp1256
g108
(g111
S'x$\xc4\xecH\xc6\xf8?'
p1257
tp1258
Rp1259
s(g171
g5
I2
g171
g4
I1
tp1260
g108
(g111
S'0\x89\n\x83\xed\x8e\xe6?'
p1261
tp1262
Rp1263
s(g171
g4
I4
g171
g5
I4
tp1264
g108
(g111
S'\xdc\xe6\x8b">E\x03@'
p1265
tp1266
Rp1267
s(g171
g7
I0
g171
g4
I0
tp1268
g108
(g111
S'\xd2\x072\x9d\xc2\xd0\xab?'
p1269
tp1270
Rp1271
s(g171
g7
I1
g171
g9
I2
tp1272
g108
(g111
S'\x8f\xf6{a\xb75\xe2?'
p1273
tp1274
Rp1275
s(g171
g9
I3
g171
g8
I2
tp1276
g108
(g111
S'\xa14zrb\xe2\x00@'
p1277
tp1278
Rp1279
s(g171
g4
I4
g171
g8
I0
tp1280
g108
(g111
S'6\x94N\x14"\xfc\xe0?'
p1281
tp1282
Rp1283
s(g171
g5
I1
g171
g7
I1
tp1284
g108
(g111
S'\xca2\xe8\xa7N\x19\xcb?'
p1285
tp1286
Rp1287
s(g171
g8
I1
g171
g8
I4
tp1288
g108
(g111
S'\xfe$\xf8M\xa5s\xfd?'
p1289
tp1290
Rp1291
s(g171
g8
I2
g171
g6
I2
tp1292
g108
(g111
S'\x17\xc6\x19c;\xce\xea?'
p1293
tp1294
Rp1295
s(g171
g7
I1
g171
g8
I1
tp1296
g108
(g111
S'\x92\x04T^B\xec\xe1?'
p1297
tp1298
Rp1299
s(g171
g4
I4
g171
g9
I4
tp1300
g108
(g111
S'\xf5\x1eI \xee\xfb\x16@'
p1301
tp1302
Rp1303
s(g171
g5
I0
g171
g5
I0
tp1304
g108
(g111
S'\xd8<\xd1P\xfeR\xf1?'
p1305
tp1306
Rp1307
s(g171
g5
I4
g171
g6
I3
tp1308
g108
(g111
S'\xd7\x82\x81\xbajm\xf9?'
p1309
tp1310
Rp1311
s(g171
g4
I2
g171
g6
I2
tp1312
g108
(g111
S'\xe7\x157\xb8B\x04\xeb?'
p1313
tp1314
Rp1315
s(g171
g6
I2
g171
g8
I0
tp1316
g108
(g111
S'\xce\xbb*4\xe4a\xd8?'
p1317
tp1318
Rp1319
s(g171
g6
I0
g171
g4
I1
tp1320
g108
(g111
S'0\xba\xa9o\x15n\xb3?'
p1321
tp1322
Rp1323
s(g171
g8
I4
g171
g9
I2
tp1324
g108
(g111
S'\xa5\x7fhP\x0e\xac\x0c@'
p1325
tp1326
Rp1327
s(g171
g8
I0
g171
g9
I0
tp1328
g108
(g111
S'\xfa\xd9X5\xaa\xb1\xeb?'
p1329
tp1330
Rp1331
s(g171
g5
I3
g171
g5
I3
tp1332
g108
(g111
S'\x85\xb8\xda;\x12\xf9\x1c@'
p1333
tp1334
Rp1335
s(g171
g4
I3
g171
g8
I1
tp1336
g108
(g111
S'\x1f\x7f\x1b\xcb\xb0\xb1\xf3?'
p1337
tp1338
Rp1339
s(g171
g9
I4
g171
g7
I2
tp1340
g108
(g111
S'KD\xebz\x13a\xf6?'
p1341
tp1342
Rp1343
s(g171
g6
I3
g171
g6
I3
tp1344
g108
(g111
S'\x9b\xfe\xcc\xcc*\xb2\t@'
p1345
tp1346
Rp1347
s(g171
g5
I2
g171
g6
I4
tp1348
g108
(g111
S'[\xec\x0e\x102\x9a\xf7?'
p1349
tp1350
Rp1351
s(g171
g8
I1
g171
g4
I3
tp1352
g108
(g111
S'\xc3\xb6\xe5t\xfd\x9b\xd9?'
p1353
tp1354
Rp1355
s(g171
g5
I2
g171
g5
I0
tp1356
g108
(g111
S'\xd8<\xd1P\xfeR\xf1?'
p1357
tp1358
Rp1359
s(g171
g9
I2
g171
g7
I0
tp1360
g108
(g111
S'{\xeb\xc8\xde\xef\xb5\xd1?'
p1361
tp1362
Rp1363
s(g171
g7
I2
g171
g6
I1
tp1364
g108
(g111
S'J\xe7\xfb\x17j\x7f\xe0?'
p1365
tp1366
Rp1367
s(g171
g6
I0
g171
g7
I0
tp1368
g108
(g111
S'\xe7\xbfb\xe1\xf3\xf2\xc9?'
p1369
tp1370
Rp1371
s(g171
g4
I0
g171
g7
I0
tp1372
g108
(g111
S'\xd6\r\x0fd\x16\x13\xc2?'
p1373
tp1374
Rp1375
s(g171
g8
I3
g171
g9
I3
tp1376
g108
(g111
S'4\xf1\x8b~\x9b~\x11@'
p1377
tp1378
Rp1379
s(g171
g6
I4
g171
g5
I3
tp1380
g108
(g111
S'>\x99\xb0\xc0\x96\xb1\xf8?'
p1381
tp1382
Rp1383
s(g171
g7
I0
g171
g8
I4
tp1384
g108
(g111
S'\xc8\xda\xd7\\_\x8b\xe1?'
p1385
tp1386
Rp1387
s(g171
g8
I4
g171
g6
I2
tp1388
g108
(g111
S'\x17\xc6\x19c;\xce\xea?'
p1389
tp1390
Rp1391
s(g171
g6
I0
g171
g8
I4
tp1392
g108
(g111
S'\xce\xbb*4\xe4a\xd8?'
p1393
tp1394
Rp1395
s(g171
g4
I4
g171
g4
I4
tp1396
g108
(g111
S'\xb3\xdb0]-\xd2\x0e@'
p1397
tp1398
Rp1399
s(g171
g6
I4
g171
g6
I1
tp1400
g108
(g111
S'~\x1a\xf8\xaa\x8f>\x01@'
p1401
tp1402
Rp1403
s(g171
g7
I0
g171
g5
I0
tp1404
g108
(g111
S';\xa7\xad@5\xa6\xc3?'
p1405
tp1406
Rp1407
s(g171
g9
I4
g171
g6
I1
tp1408
g108
(g111
S'\x14w\xb1F\xe2\xf2\xf2?'
p1409
tp1410
Rp1411
s(g171
g4
I3
g171
g5
I2
tp1412
g108
(g111
S'\xd2\xa9\xf1j\x19d\xfe?'
p1413
tp1414
Rp1415
s(g171
g4
I4
g171
g5
I0
tp1416
g108
(g111
S"'\xd9\x0f\xa5h\xd2\xdd?"
p1417
tp1418
Rp1419
s(g171
g7
I0
g171
g4
I4
tp1420
g108
(g111
S'\xd2\x072\x9d\xc2\xd0\xab?'
p1421
tp1422
Rp1423
s(g171
g5
I4
g171
g4
I3
tp1424
g108
(g111
S'\x1d\xf0,\xb7\xf9\xfb\xf1?'
p1425
tp1426
Rp1427
s(g171
g4
I3
g171
g4
I2
tp1428
g108
(g111
S'`\xe5\xcf\xce5\xfa\x03@'
p1429
tp1430
Rp1431
s(g171
g8
I4
g171
g7
I2
tp1432
g108
(g111
S'\\Y-\x9f\xc7:\xfd?'
p1433
tp1434
Rp1435
s(g171
g9
I2
g171
g4
I1
tp1436
g108
(g111
S']\x8fvy20\xe0?'
p1437
tp1438
Rp1439
s(g171
g4
I2
g171
g5
I2
tp1440
g108
(g111
S'\xd2\xa9\xf1j\x19d\xfe?'
p1441
tp1442
Rp1443
s(g171
g9
I0
g171
g7
I0
tp1444
g108
(g111
S'{\xeb\xc8\xde\xef\xb5\xd1?'
p1445
tp1446
Rp1447
s(g171
g8
I2
g171
g9
I1
tp1448
g108
(g111
S'\xfa\xe7y\x92\xd5\x17\x02@'
p1449
tp1450
Rp1451
s(g171
g5
I0
g171
g5
I4
tp1452
g108
(g111
S'\xd8<\xd1P\xfeR\xf1?'
p1453
tp1454
Rp1455
s(g171
g8
I0
g171
g8
I0
tp1456
g108
(g111
S'3\xf1\xce\xf7oP\xee?'
p1457
tp1458
Rp1459
s(g171
g6
I2
g171
g8
I4
tp1460
g108
(g111
S'\xc0\xbe\xc7|Y\xe4\xf4?'
p1461
tp1462
Rp1463
s(g171
g6
I3
g171
g4
I3
tp1464
g108
(g111
S'L\xa9n\x95\x0c\x86\xdd?'
p1465
tp1466
Rp1467
s(g171
g8
I2
g171
g8
I3
tp1468
g108
(g111
S'*\xa6\xec\x9f]{\x05@'
p1469
tp1470
Rp1471
s(g171
g6
I1
g171
g7
I2
tp1472
g108
(g111
S'\xb0\x9c\xd8\x82\xc6\xba\xe5?'
p1473
tp1474
Rp1475
s(g171
g9
I3
g171
g6
I1
tp1476
g108
(g111
S'\x14w\xb1F\xe2\xf2\xf2?'
p1477
tp1478
Rp1479
s(g171
g9
I4
g171
g5
I2
tp1480
g108
(g111
S'\xaf\xda\xc8\xe8h4\xf9?'
p1481
tp1482
Rp1483
s(g171
g7
I1
g171
g4
I1
tp1484
g108
(g111
S'a\x13\x14\x95\xc5\xde\xaf?'
p1485
tp1486
Rp1487
s(g171
g4
I1
g171
g5
I2
tp1488
g108
(g111
S'\xa86\xff\xb3\xae\x9d\xf5?'
p1489
tp1490
Rp1491
s(g171
g8
I1
g171
g5
I1
tp1492
g108
(g111
S'\xe0\xbdQ\xf7\x94h\xe6?'
p1493
tp1494
Rp1495
s(g171
g5
I1
g171
g6
I0
tp1496
g108
(g111
S'vN^\x14\xfb\xb7\xdc?'
p1497
tp1498
Rp1499
s(g171
g4
I0
g171
g9
I4
tp1500
g108
(g111
S'7)\xeek\xf5\x89\xf1?'
p1501
tp1502
Rp1503
s(g171
g8
I1
g171
g7
I1
tp1504
g108
(g111
S'\x88\x16A\xda\xebI\xde?'
p1505
tp1506
Rp1507
s(g171
g9
I4
g171
g5
I0
tp1508
g108
(g111
S'd\x8d\xf62\xb34\xdf?'
p1509
tp1510
Rp1511
s(g171
g5
I2
g171
g6
I0
tp1512
g108
(g111
S'vN^\x14\xfb\xb7\xdc?'
p1513
tp1514
Rp1515
s(g171
g9
I0
g171
g4
I1
tp1516
g108
(g111
S'\x91\x0c\x90\x9d[\xdc\xca?'
p1517
tp1518
Rp1519
s(g171
g5
I4
g171
g7
I2
tp1520
g108
(g111
S'\xa4\x93\x1dv\xf3\x99\xf3?'
p1521
tp1522
Rp1523
s(g171
g4
I2
g171
g9
I3
tp1524
g108
(g111
S'\xca\xb1\xd3Td\xe4\x0f@'
p1525
tp1526
Rp1527
s(g171
g8
I4
g171
g4
I3
tp1528
g108
(g111
S'\x1br\xf3\x9dg\xf9\xe6?'
p1529
tp1530
Rp1531
s(g171
g7
I1
g171
g6
I4
tp1532
g108
(g111
S'9o\xfd\xe1ww\xcb?'
p1533
tp1534
Rp1535
s(g171
g7
I0
g171
g7
I2
tp1536
g108
(g111
S'\x90x\xe3\x83*\xf1\xec?'
p1537
tp1538
Rp1539
s(g171
g7
I0
g171
g8
I0
tp1540
g108
(g111
S'\xc8\xda\xd7\\_\x8b\xe1?'
p1541
tp1542
Rp1543
s(g171
g9
I0
g171
g8
I2
tp1544
g108
(g111
S'\x99\x18\xe0j\xefN\xe0?'
p1545
tp1546
Rp1547
s(g171
g4
I3
g171
g6
I2
tp1548
g108
(g111
S'\xe7\x157\xb8B\x04\xeb?'
p1549
tp1550
Rp1551
s(g171
g4
I4
g171
g4
I0
tp1552
g108
(g111
S'\xb5\\M\xfa\xa3l\xea?'
p1553
tp1554
Rp1555
s(g171
g5
I1
g171
g9
I1
tp1556
g108
(g111
S'^Ed\xcd\xbb}\x06@'
p1557
tp1558
Rp1559
s(g171
g9
I0
g171
g8
I0
tp1560
g108
(g111
S'\x99\x18\xe0j\xefN\xe0?'
p1561
tp1562
Rp1563
s(g171
g4
I0
g171
g5
I1
tp1564
g108
(g111
S"'\xd9\x0f\xa5h\xd2\xdd?"
p1565
tp1566
Rp1567
s(g171
g9
I4
g171
g4
I2
tp1568
g108
(g111
S'\xef\n\xa3\xda\xdek\xe8?'
p1569
tp1570
Rp1571
s(g171
g9
I3
g171
g9
I2
tp1572
g108
(g111
S'\xb9\x94\xaaS\xbfr\x12@'
p1573
tp1574
Rp1575
s(g171
g8
I0
g171
g7
I0
tp1576
g108
(g111
S'\x83\x8c\x93\r0\xa6\xdd?'
p1577
tp1578
Rp1579
s(g171
g8
I3
g171
g7
I2
tp1580
g108
(g111
S'\xce2\xd6,\x8e\xef\xf7?'
p1581
tp1582
Rp1583
s(g171
g9
I4
g171
g8
I2
tp1584
g108
(g111
S'\xa14zrb\xe2\x00@'
p1585
tp1586
Rp1587
s(g171
g4
I1
g171
g9
I2
tp1588
g108
(g111
S'h\x94\xca\xcd\xf4#\x05@'
p1589
tp1590
Rp1591
s(g171
g6
I1
g171
g8
I2
tp1592
g108
(g111
S'\xfa\x97\xef\x11\x92\x80\xf4?'
p1593
tp1594
Rp1595
s(g171
g4
I4
g171
g7
I1
tp1596
g108
(g111
S'Z\xe6\xd0\x9f\xb4;\xd1?'
p1597
tp1598
Rp1599
s(g171
g6
I4
g171
g9
I3
tp1600
g108
(g111
S'u\xda\xb1\r\x94r\r@'
p1601
tp1602
Rp1603
s(g171
g5
I3
g171
g4
I1
tp1604
g108
(g111
S'0\x89\n\x83\xed\x8e\xe6?'
p1605
tp1606
Rp1607
s(g171
g9
I4
g171
g4
I0
tp1608
g108
(g111
S'\x91\x0c\x90\x9d[\xdc\xca?'
p1609
tp1610
Rp1611
s(g171
g4
I1
g171
g8
I2
tp1612
g108
(g111
S'\x1f\x7f\x1b\xcb\xb0\xb1\xf3?'
p1613
tp1614
Rp1615
s(g171
g6
I0
g171
g6
I4
tp1616
g108
(g111
S'\xf0\x0fU\xce\xe2/\xeb?'
p1617
tp1618
Rp1619
s(g171
g4
I3
g171
g9
I3
tp1620
g108
(g111
S'\xed{Y%\x10w\x13@'
p1621
tp1622
Rp1623
s(g171
g5
I0
g171
g6
I1
tp1624
g108
(g111
S'vN^\x14\xfb\xb7\xdc?'
p1625
tp1626
Rp1627
s(g171
g9
I1
g171
g5
I2
tp1628
g108
(g111
S'\x9d\xe9yd\xe8\xa3\xf1?'
p1629
tp1630
Rp1631
s(g171
g9
I0
g171
g5
I3
tp1632
g108
(g111
S'd\x8d\xf62\xb34\xdf?'
p1633
tp1634
Rp1635
s(g171
g5
I1
g171
g6
I4
tp1636
g108
(g111
S'\x0e\x95g\xd8\\H\xf6?'
p1637
tp1638
Rp1639
s(g171
g4
I0
g171
g9
I0
tp1640
g108
(g111
S'7)\xeek\xf5\x89\xf1?'
p1641
tp1642
Rp1643
s(g171
g8
I0
g171
g6
I3
tp1644
g108
(g111
S'o1v;\xb2H\xcf?'
p1645
tp1646
Rp1647
s(g171
g4
I2
g171
g8
I1
tp1648
g108
(g111
S'\x1f\x7f\x1b\xcb\xb0\xb1\xf3?'
p1649
tp1650
Rp1651
s(g171
g7
I0
g171
g9
I4
tp1652
g108
(g111
S'\xc3\xdf\xd1\xaa\xf0\xcb\xe1?'
p1653
tp1654
Rp1655
s(g171
g6
I2
g171
g6
I3
tp1656
g108
(g111
S'\x01ZU\xed\x18\xda\x06@'
p1657
tp1658
Rp1659
s(g171
g6
I4
g171
g4
I1
tp1660
g108
(g111
S'1-\x9e\x1c=\x99\xd0?'
p1661
tp1662
Rp1663
s(g171
g7
I0
g171
g9
I0
tp1664
g108
(g111
S'\xc3\xdf\xd1\xaa\xf0\xcb\xe1?'
p1665
tp1666
Rp1667
s(g171
g6
I1
g171
g4
I3
tp1668
g108
(g111
S'\xe7J\xbb\xfe\x14\xd0\xda?'
p1669
tp1670
Rp1671
s(g171
g8
I4
g171
g8
I4
tp1672
g108
(g111
S'\xae\xc5\r\x99g\xcc\x0f@'
p1673
tp1674
Rp1675
s(g171
g5
I2
g171
g8
I1
tp1676
g108
(g111
S'46\xda\xd3\x90`\xf2?'
p1677
tp1678
Rp1679
s(g171
g5
I4
g171
g9
I4
tp1680
g108
(g111
S'\xcc\xddW\xa2\xc04\x14@'
p1681
tp1682
Rp1683
s(g171
g5
I4
g171
g5
I1
tp1684
g108
(g111
S'\x18s\xe1\xb8\xdd\xf6\x11@'
p1685
tp1686
Rp1687
s(g171
g9
I0
g171
g9
I0
tp1688
g108
(g111
S'\xe7\x9a\x98\xdb\x06\xab\xf2?'
p1689
tp1690
Rp1691
s(g171
g4
I0
g171
g4
I3
tp1692
g108
(g111
S'\xb5\\M\xfa\xa3l\xea?'
p1693
tp1694
Rp1695
s(g171
g8
I2
g171
g5
I1
tp1696
g108
(g111
S'\x877\x1d\xc29|\xf2?'
p1697
tp1698
Rp1699
s(g171
g9
I2
g171
g5
I3
tp1700
g108
(g111
S'\xaf\xda\xc8\xe8h4\xf9?'
p1701
tp1702
Rp1703
s(g171
g4
I2
g171
g4
I2
tp1704
g108
(g111
S'`\xe5\xcf\xce5\xfa\x03@'
p1705
tp1706
Rp1707
s(g171
g9
I3
g171
g9
I3
tp1708
g108
(g111
S'\xd2#\xe2\x8a5\xf2\x16@'
p1709
tp1710
Rp1711
s(g171
g8
I3
g171
g6
I2
tp1712
g108
(g111
S'\x17\xc6\x19c;\xce\xea?'
p1713
tp1714
Rp1715
s(g171
g7
I0
g171
g6
I1
tp1716
g108
(g111
S'\xeb\xbd\xfd\xdf\x83\xb3\xc3?'
p1717
tp1718
Rp1719
s(g171
g7
I1
g171
g6
I2
tp1720
g108
(g111
S'\xa1\xb7\x0e|J\xbe\xc3?'
p1721
tp1722
Rp1723
s(g171
g9
I4
g171
g9
I0
tp1724
g108
(g111
S'\xe7\x9a\x98\xdb\x06\xab\xf2?'
p1725
tp1726
Rp1727
s(g171
g8
I2
g171
g6
I4
tp1728
g108
(g111
S'\x17\xc6\x19c;\xce\xea?'
p1729
tp1730
Rp1731
s(g171
g9
I1
g171
g9
I2
tp1732
g108
(g111
S'\x1f\x86\x14i\xb8\xb9\x07@'
p1733
tp1734
Rp1735
s(g171
g7
I2
g171
g5
I0
tp1736
g108
(g111
S';\xa7\xad@5\xa6\xc3?'
p1737
tp1738
Rp1739
s(g171
g6
I3
g171
g5
I1
tp1740
g108
(g111
S'?-\xb3\xab\xc3\xa3\xf5?'
p1741
tp1742
Rp1743
s(g171
g5
I3
g171
g9
I3
tp1744
g108
(g111
S'\x12\xf2\xcb\x91\xc8\xb0\x12@'
p1745
tp1746
Rp1747
s(g171
g6
I0
g171
g5
I4
tp1748
g108
(g111
S',\xc7\x8e9\xd7\xe3\xdb?'
p1749
tp1750
Rp1751
s(g171
g9
I0
g171
g6
I1
tp1752
g108
(g111
S'\x91\x16\xa7\xfd\xfb\xb7\xe2?'
p1753
tp1754
Rp1755
s(g171
g8
I0
g171
g8
I3
tp1756
g108
(g111
S'3\xf1\xce\xf7oP\xee?'
p1757
tp1758
Rp1759
s(g171
g6
I0
g171
g6
I0
tp1760
g108
(g111
S'\xf0\x0fU\xce\xe2/\xeb?'
p1761
tp1762
Rp1763
s(g171
g4
I0
g171
g8
I0
tp1764
g108
(g111
S'6\x94N\x14"\xfc\xe0?'
p1765
tp1766
Rp1767
s(g171
g7
I2
g171
g8
I4
tp1768
g108
(g111
S'\xd8\x90\xcc\xc9\xd0K\x01@'
p1769
tp1770
Rp1771
s(g171
g9
I1
g171
g5
I0
tp1772
g108
(g111
S'd\x8d\xf62\xb34\xdf?'
p1773
tp1774
Rp1775
s(g171
g9
I4
g171
g7
I0
tp1776
g108
(g111
S'{\xeb\xc8\xde\xef\xb5\xd1?'
p1777
tp1778
Rp1779
s(g171
g6
I1
g171
g4
I4
tp1780
g108
(g111
S'\xe7J\xbb\xfe\x14\xd0\xda?'
p1781
tp1782
Rp1783
s(g171
g6
I1
g171
g6
I3
tp1784
g108
(g111
S'~\x1a\xf8\xaa\x8f>\x01@'
p1785
tp1786
Rp1787
s(g171
g9
I3
g171
g5
I0
tp1788
g108
(g111
S'd\x8d\xf62\xb34\xdf?'
p1789
tp1790
Rp1791
s(g171
g4
I4
g171
g6
I0
tp1792
g108
(g111
S'f\x08\xd9\x01\xe9+\xc3?'
p1793
tp1794
Rp1795
s(g171
g4
I1
g171
g6
I3
tp1796
g108
(g111
S'\xed\x9f\xbaP\xb5`\xe0?'
p1797
tp1798
Rp1799
s(g171
g6
I1
g171
g5
I1
tp1800
g108
(g111
S'?-\xb3\xab\xc3\xa3\xf5?'
p1801
tp1802
Rp1803
s(g171
g5
I1
g171
g5
I1
tp1804
g108
(g111
S'\x18s\xe1\xb8\xdd\xf6\x11@'
p1805
tp1806
Rp1807
s(g171
g8
I3
g171
g9
I1
tp1808
g108
(g111
S'\xfa\xe7y\x92\xd5\x17\x02@'
p1809
tp1810
Rp1811
s(g171
g8
I1
g171
g6
I1
tp1812
g108
(g111
S'9\xa9\xfb\xf83P\xe1?'
p1813
tp1814
Rp1815
s(g171
g9
I2
g171
g9
I3
tp1816
g108
(g111
S'\xb9\x94\xaaS\xbfr\x12@'
p1817
tp1818
Rp1819
s(g171
g5
I4
g171
g8
I3
tp1820
g108
(g111
S'\x17\xdc\x8cQ\xbbA\x00@'
p1821
tp1822
Rp1823
s(g171
g5
I1
g171
g8
I3
tp1824
g108
(g111
S'\xf2Q\xb8\xa1\xa9\xab\xfd?'
p1825
tp1826
Rp1827
s(g171
g6
I0
g171
g9
I1
tp1828
g108
(g111
S'x$\xc4\xecH\xc6\xf8?'
p1829
tp1830
Rp1831
s(g171
g8
I2
g171
g4
I3
tp1832
g108
(g111
S'\xfc\x01?lD\xdb\xe3?'
p1833
tp1834
Rp1835
s(g171
g7
I2
g171
g4
I4
tp1836
g108
(g111
S'\xdc\x11\x83\xa4F\x05\xdc?'
p1837
tp1838
Rp1839
s(g171
g9
I0
g171
g9
I4
tp1840
g108
(g111
S'\xe7\x9a\x98\xdb\x06\xab\xf2?'
p1841
tp1842
Rp1843
s(g171
g8
I3
g171
g4
I3
tp1844
g108
(g111
S'\x1br\xf3\x9dg\xf9\xe6?'
p1845
tp1846
Rp1847
s(g171
g9
I1
g171
g7
I2
tp1848
g108
(g111
S'[^\xc07\x8e?\xe2?'
p1849
tp1850
Rp1851
s(g171
g7
I2
g171
g4
I2
tp1852
g108
(g111
S'X/\xb9JQ\xba\xd6?'
p1853
tp1854
Rp1855
s(g171
g6
I3
g171
g7
I2
tp1856
g108
(g111
S'C\x1b2U_I\xe8?'
p1857
tp1858
Rp1859
s(g171
g8
I1
g171
g6
I3
tp1860
g108
(g111
S'\xde;D\xed\xa8\xb2\xe1?'
p1861
tp1862
Rp1863
s(g171
g4
I4
g171
g9
I1
tp1864
g108
(g111
S'h\x94\xca\xcd\xf4#\x05@'
p1865
tp1866
Rp1867
s(g171
g6
I3
g171
g8
I3
tp1868
g108
(g111
S'\x02\xee\xd0\xceR\xbf\xf7?'
p1869
tp1870
Rp1871
s(g171
g5
I3
g171
g8
I1
tp1872
g108
(g111
S'46\xda\xd3\x90`\xf2?'
p1873
tp1874
Rp1875
s(g171
g6
I1
g171
g9
I2
tp1876
g108
(g111
S's\xf1_T=\x14\t@'
p1877
tp1878
Rp1879
s(g171
g5
I0
g171
g4
I1
tp1880
g108
(g111
S'R\xa4,\xaa<\x1f\xcf?'
p1881
tp1882
Rp1883
s(g171
g6
I2
g171
g9
I1
tp1884
g108
(g111
S'K(\x1cf\xd9\xd1\x04@'
p1885
tp1886
Rp1887
s(g171
g6
I0
g171
g5
I0
tp1888
g108
(g111
S',\xc7\x8e9\xd7\xe3\xdb?'
p1889
tp1890
Rp1891
s(g171
g8
I3
g171
g8
I3
tp1892
g108
(g111
S'\xec5}\x9c\xe2\xa3\n@'
p1893
tp1894
Rp1895
s(g171
g4
I0
g171
g8
I4
tp1896
g108
(g111
S'6\x94N\x14"\xfc\xe0?'
p1897
tp1898
Rp1899
s(g171
g6
I4
g171
g8
I1
tp1900
g108
(g111
S'\xfc\xca#zK\x96\xeb?'
p1901
tp1902
Rp1903
s(g171
g4
I1
g171
g4
I3
tp1904
g108
(g111
S'%\xe3H\xee3\x92\x01@'
p1905
tp1906
Rp1907
s(g171
g8
I1
g171
g4
I4
tp1908
g108
(g111
S'\xc3\xb6\xe5t\xfd\x9b\xd9?'
p1909
tp1910
Rp1911
s(g171
g9
I3
g171
g4
I0
tp1912
g108
(g111
S'\x91\x0c\x90\x9d[\xdc\xca?'
p1913
tp1914
Rp1915
s(g171
g4
I3
g171
g7
I2
tp1916
g108
(g111
S'\xf82\xa0\x13\xfc|\xf0?'
p1917
tp1918
Rp1919
s(g171
g9
I1
g171
g4
I3
tp1920
g108
(g111
S']\x8fvy20\xe0?'
p1921
tp1922
Rp1923
s(g171
g8
I1
g171
g9
I0
tp1924
g108
(g111
S'\xfa\xd9X5\xaa\xb1\xeb?'
p1925
tp1926
Rp1927
s(g171
g5
I1
g171
g4
I3
tp1928
g108
(g111
S'\xc9\xa1\x8bv`\xab\xec?'
p1929
tp1930
Rp1931
s(g171
g7
I1
g171
g5
I0
tp1932
g108
(g111
S';\xa7\xad@5\xa6\xc3?'
p1933
tp1934
Rp1935
s(g171
g5
I0
g171
g9
I2
tp1936
g108
(g111
S' \xfc\x900\xadC\xf5?'
p1937
tp1938
Rp1939
s(g171
g4
I4
g171
g6
I4
tp1940
g108
(g111
S'l\x90\xc6\xf7\xbc>\xef?'
p1941
tp1942
Rp1943
s(g171
g8
I4
g171
g5
I2
tp1944
g108
(g111
S'\xea\xee\x8c\x8b\xdd\xda\xf2?'
p1945
tp1946
Rp1947
s(g171
g4
I0
g171
g9
I2
tp1948
g108
(g111
S'7)\xeek\xf5\x89\xf1?'
p1949
tp1950
Rp1951
s(g171
g5
I4
g171
g9
I1
tp1952
g108
(g111
S'!\xa7\xe0~z\n\x08@'
p1953
tp1954
Rp1955
s(g171
g6
I2
g171
g4
I2
tp1956
g108
(g111
S'd\xa4\xcdI\x83a\xdb?'
p1957
tp1958
Rp1959
s(g171
g6
I0
g171
g8
I3
tp1960
g108
(g111
S'\xce\xbb*4\xe4a\xd8?'
p1961
tp1962
Rp1963
s(g171
g5
I0
g171
g8
I2
tp1964
g108
(g111
S'%\x085\xf5\xb7\xd0\xd6?'
p1965
tp1966
Rp1967
s(g171
g5
I2
g171
g9
I3
tp1968
g108
(g111
S'V\x06@\x81\xd0,\x11@'
p1969
tp1970
Rp1971
s(g171
g6
I2
g171
g5
I2
tp1972
g108
(g111
S'\x94k}_\xd9\xeb\xf6?'
p1973
tp1974
Rp1975
s(g171
g7
I0
g171
g4
I1
tp1976
g108
(g111
S'\xd2\x072\x9d\xc2\xd0\xab?'
p1977
tp1978
Rp1979
s(g171
g7
I1
g171
g9
I3
tp1980
g108
(g111
S'Vaf\x93\xc5\xf7\xf1?'
p1981
tp1982
Rp1983
s(g171
g9
I3
g171
g8
I1
tp1984
g108
(g111
S"#C^\x82'O\xf5?"
p1985
tp1986
Rp1987
s(g171
g6
I3
g171
g9
I1
tp1988
g108
(g111
S'K(\x1cf\xd9\xd1\x04@'
p1989
tp1990
Rp1991
s(g171
g4
I1
g171
g7
I2
tp1992
g108
(g111
S'\x9fO\x0e5\xc8\r\xe1?'
p1993
tp1994
Rp1995
s(g171
g5
I4
g171
g6
I0
tp1996
g108
(g111
S'vN^\x14\xfb\xb7\xdc?'
p1997
tp1998
Rp1999
s(g171
g8
I1
g171
g8
I1
tp2000
g108
(g111
S'\xfe$\xf8M\xa5s\xfd?'
p2001
tp2002
Rp2003
s(g171
g6
I0
g171
g4
I0
tp2004
g108
(g111
S'0\xba\xa9o\x15n\xb3?'
p2005
tp2006
Rp2007
s(g171
g8
I4
g171
g9
I3
tp2008
g108
(g111
S'4\xf1\x8b~\x9b~\x11@'
p2009
tp2010
Rp2011
s(g171
g9
I2
g171
g6
I2
tp2012
g108
(g111
S'\x97T\x91\xf1>\x0c\xf4?'
p2013
tp2014
Rp2015
s(g171
g8
I0
g171
g9
I1
tp2016
g108
(g111
S'\xfa\xd9X5\xaa\xb1\xeb?'
p2017
tp2018
Rp2019
s(g171
g9
I3
g171
g6
I4
tp2020
g108
(g111
S'\x99\xdc\xd4u\xdb?\xf6?'
p2021
tp2022
Rp2023
s(g171
g8
I2
g171
g7
I2
tp2024
g108
(g111
S'@\x0c\x7f\xbaT\xa4\xf2?'
p2025
tp2026
Rp2027
s(g171
g9
I3
g171
g5
I3
tp2028
g108
(g111
S'\x82\x03\xb1\x03\xc3m\xfb?'
p2029
tp2030
Rp2031
s(g171
g8
I0
g171
g4
I3
tp2032
g108
(g111
S'?\xa4\xe6h\x1e\x16\xc6?'
p2033
tp2034
Rp2035
s(g171
g8
I1
g171
g5
I4
tp2036
g108
(g111
S'dT\x8e\x16\x0c\xe6\xe6?'
p2037
tp2038
Rp2039
s(g171
g4
I3
g171
g8
I2
tp2040
g108
(g111
S'2/\xfa\xf2E\x8a\xfe?'
p2041
tp2042
Rp2043
s(g171
g6
I3
g171
g6
I0
tp2044
g108
(g111
S'\xf0\x0fU\xce\xe2/\xeb?'
p2045
tp2046
Rp2047
s(g171
g5
I3
g171
g6
I0
tp2048
g108
(g111
S'vN^\x14\xfb\xb7\xdc?'
p2049
tp2050
Rp2051
s(g171
g8
I1
g171
g4
I0
tp2052
g108
(g111
S'?\xa4\xe6h\x1e\x16\xc6?'
p2053
tp2054
Rp2055
s(g171
g7
I1
g171
g7
I0
tp2056
g108
(g111
S'\x90x\xe3\x83*\xf1\xec?'
p2057
tp2058
Rp2059
s(g171
g5
I2
g171
g5
I3
tp2060
g108
(g111
S'\xdce\xd7\x0bB\x9e\x1a@'
p2061
tp2062
Rp2063
s(g171
g8
I4
g171
g8
I3
tp2064
g108
(g111
S'\xec5}\x9c\xe2\xa3\n@'
p2065
tp2066
Rp2067
s(g171
g9
I1
g171
g5
I3
tp2068
g108
(g111
S'\x9d\xe9yd\xe8\xa3\xf1?'
p2069
tp2070
Rp2071
s(g171
g7
I2
g171
g6
I2
tp2072
g108
(g111
S'\xb8%\x00\xbf\x1b\x82\xe0?'
p2073
tp2074
Rp2075
s(g171
g6
I0
g171
g7
I1
tp2076
g108
(g111
S'\xe7\xbfb\xe1\xf3\xf2\xc9?'
p2077
tp2078
Rp2079
s(g171
g4
I0
g171
g7
I1
tp2080
g108
(g111
S'\xd6\r\x0fd\x16\x13\xc2?'
p2081
tp2082
Rp2083
s(g171
g9
I1
g171
g5
I4
tp2084
g108
(g111
S'\x9d\xe9yd\xe8\xa3\xf1?'
p2085
tp2086
Rp2087
s(g171
g7
I2
g171
g8
I2
tp2088
g108
(g111
S'\xc5ey\xc6\xe6\x0f\xf6?'
p2089
tp2090
Rp2091
s(g171
g5
I2
g171
g4
I4
tp2092
g108
(g111
S'\x04Q\xd8kG\xb7\xef?'
p2093
tp2094
Rp2095
s(g171
g4
I0
g171
g6
I3
tp2096
g108
(g111
S'f\x08\xd9\x01\xe9+\xc3?'
p2097
tp2098
Rp2099
s(g171
g8
I0
g171
g5
I1
tp2100
g108
(g111
S'\xafw&^\xbbm\xcc?'
p2101
tp2102
Rp2103
s(g171
g6
I4
g171
g6
I0
tp2104
g108
(g111
S'\xf0\x0fU\xce\xe2/\xeb?'
p2105
tp2106
Rp2107
s(g171
g9
I4
g171
g6
I2
tp2108
g108
(g111
S'\x97T\x91\xf1>\x0c\xf4?'
p2109
tp2110
Rp2111
s(g171
g4
I4
g171
g5
I1
tp2112
g108
(g111
S'\x00\xbb\x9a\xf7\xc6x\xfb?'
p2113
tp2114
Rp2115
s(g171
g4
I3
g171
g4
I3
tp2116
g108
(g111
S'\x8a`\x00\x961f\t@'
p2117
tp2118
Rp2119
s(g171
g8
I4
g171
g8
I1
tp2120
g108
(g111
S'\xfe$\xf8M\xa5s\xfd?'
p2121
tp2122
Rp2123
s(g171
g4
I4
g171
g8
I3
tp2124
g108
(g111
S'\x86@\xd2\xb1\xeb\xaa\x01@'
p2125
tp2126
Rp2127
s(g171
g9
I2
g171
g4
I2
tp2128
g108
(g111
S'\xef\n\xa3\xda\xdek\xe8?'
p2129
tp2130
Rp2131
s(g171
g5
I1
g171
g7
I2
tp2132
g108
(g111
S'\xb9-\x9a\xbc\xfcf\xf0?'
p2133
tp2134
Rp2135
s(g171
g4
I2
g171
g5
I3
tp2136
g108
(g111
S'\xd2\xa9\xf1j\x19d\xfe?'
p2137
tp2138
Rp2139
s(g171
g7
I2
g171
g9
I1
tp2140
g108
(g111
S'ZV\xa6\xfc9V\xf2?'
p2141
tp2142
Rp2143
s(g171
g8
I2
g171
g9
I2
tp2144
g108
(g111
S'\xa5\x7fhP\x0e\xac\x0c@'
p2145
tp2146
Rp2147
s(g171
g5
I0
g171
g5
I3
tp2148
g108
(g111
S'\xd8<\xd1P\xfeR\xf1?'
p2149
tp2150
Rp2151
s(g171
g5
I4
g171
g6
I4
tp2152
g108
(g111
S'T\x19\xf4d\xa3@\xfb?'
p2153
tp2154
Rp2155
s(g171
g4
I2
g171
g6
I1
tp2156
g108
(g111
S'XL\xca\xb9\xc3t\xea?'
p2157
tp2158
Rp2159
s(g171
g4
I0
g171
g6
I4
tp2160
g108
(g111
S'f\x08\xd9\x01\xe9+\xc3?'
p2161
tp2162
Rp2163
s(g171
g6
I2
g171
g8
I3
tp2164
g108
(g111
S'\xc0\xbe\xc7|Y\xe4\xf4?'
p2165
tp2166
Rp2167
s(g171
g6
I0
g171
g4
I4
tp2168
g108
(g111
S'0\xba\xa9o\x15n\xb3?'
p2169
tp2170
Rp2171
s(g171
g6
I3
g171
g7
I0
tp2172
g108
(g111
S'\xe7\xbfb\xe1\xf3\xf2\xc9?'
p2173
tp2174
Rp2175
s(g171
g5
I3
g171
g4
I4
tp2176
g108
(g111
S'\x1d\xf0,\xb7\xf9\xfb\xf1?'
p2177
tp2178
Rp2179
s(g171
g9
I1
g171
g6
I1
tp2180
g108
(g111
S'\xdf\xdfd\xf0<h\xed?'
p2181
tp2182
Rp2183
s(g171
g8
I1
g171
g6
I4
tp2184
g108
(g111
S'\xde;D\xed\xa8\xb2\xe1?'
p2185
tp2186
Rp2187
s(g171
g9
I3
g171
g6
I0
tp2188
g108
(g111
S'\x91\x16\xa7\xfd\xfb\xb7\xe2?'
p2189
tp2190
Rp2191
s(g171
g8
I1
g171
g7
I2
tp2192
g108
(g111
S'\xd4C\x97\x83\x95_\xea?'
p2193
tp2194
Rp2195
s(g171
g7
I1
g171
g4
I0
tp2196
g108
(g111
S'\xd2\x072\x9d\xc2\xd0\xab?'
p2197
tp2198
Rp2199
s(g171
g5
I3
g171
g5
I0
tp2200
g108
(g111
S'\xd8<\xd1P\xfeR\xf1?'
p2201
tp2202
Rp2203
s(g171
g4
I1
g171
g5
I1
tp2204
g108
(g111
S'\x0e\xd0\x1a\xcaY\xec\xf2?'
p2205
tp2206
Rp2207
s(g171
g8
I1
g171
g5
I0
tp2208
g108
(g111
S'\xafw&^\xbbm\xcc?'
p2209
tp2210
Rp2211
s(g171
g6
I3
g171
g6
I4
tp2212
g108
(g111
S'\x9b\xfe\xcc\xcc*\xb2\t@'
p2213
tp2214
Rp2215
s(g171
g5
I3
g171
g6
I4
tp2216
g108
(g111
S'\xd7\x82\x81\xbajm\xf9?'
p2217
tp2218
Rp2219
s(g171
g5
I4
g171
g7
I1
tp2220
g108
(g111
S'aD5A\\\xd2\xd3?'
p2221
tp2222
Rp2223
s(g171
g6
I4
g171
g4
I4
tp2224
g108
(g111
S'4\xae\x0f\xe1\x95\xaa\xdf?'
p2225
tp2226
Rp2227
s(g171
g4
I2
g171
g9
I0
tp2228
g108
(g111
S'7)\xeek\xf5\x89\xf1?'
p2229
tp2230
Rp2231
s(g171
g8
I4
g171
g4
I2
tp2232
g108
(g111
S'\xfc\x01?lD\xdb\xe3?'
p2233
tp2234
Rp2235
s(g171
g8
I3
g171
g5
I2
tp2236
g108
(g111
S'\xea\xee\x8c\x8b\xdd\xda\xf2?'
p2237
tp2238
Rp2239
s(g171
g7
I2
g171
g4
I1
tp2240
g108
(g111
S'\xfd\x08\x8a2\xa1>\xca?'
p2241
tp2242
Rp2243
s(g171
g6
I4
g171
g5
I0
tp2244
g108
(g111
S',\xc7\x8e9\xd7\xe3\xdb?'
p2245
tp2246
Rp2247
s(g171
g7
I0
g171
g8
I1
tp2248
g108
(g111
S'\xc8\xda\xd7\\_\x8b\xe1?'
p2249
tp2250
Rp2251
s(g171
g4
I3
g171
g6
I3
tp2252
g108
(g111
S'*\xd3\xfe\xd7\x7f!\xed?'
p2253
tp2254
Rp2255
s(g171
g4
I4
g171
g4
I3
tp2256
g108
(g111
S'\x8a`\x00\x961f\t@'
p2257
tp2258
Rp2259
s(g171
g6
I4
g171
g6
I4
tp2260
g108
(g111
S'3\xa3D\xac<\x8a\x0c@'
p2261
tp2262
Rp2263
s(g171
g7
I0
g171
g5
I3
tp2264
g108
(g111
S';\xa7\xad@5\xa6\xc3?'
p2265
tp2266
Rp2267
s(g171
g5
I4
g171
g5
I4
tp2268
g108
(g111
S',\x0b\xdek\xe2S\x1f@'
p2269
tp2270
Rp2271
s(g171
g5
I1
g171
g9
I2
tp2272
g108
(g111
S'e\x98\x08C\x11Q\x10@'
p2273
tp2274
Rp2275
s(g171
g4
I3
g171
g5
I1
tp2276
g108
(g111
S'\x00\xbb\x9a\xf7\xc6x\xfb?'
p2277
tp2278
Rp2279
s(g171
g5
I2
g171
g7
I2
tp2280
g108
(g111
S"'\xfe|\xff\x18w\xf0?"
p2281
tp2282
Rp2283
s(g171
g5
I4
g171
g4
I0
tp2284
g108
(g111
S'R\xa4,\xaa<\x1f\xcf?'
p2285
tp2286
Rp2287
s(g171
g9
I0
g171
g8
I1
tp2288
g108
(g111
S'\x99\x18\xe0j\xefN\xe0?'
p2289
tp2290
Rp2291
s(g171
g8
I3
g171
g4
I1
tp2292
g108
(g111
S'\xc3\xb6\xe5t\xfd\x9b\xd9?'
p2293
tp2294
Rp2295
s(g171
g8
I0
g171
g7
I1
tp2296
g108
(g111
S'\x83\x8c\x93\r0\xa6\xdd?'
p2297
tp2298
Rp2299
s(g171
g8
I3
g171
g7
I1
tp2300
g108
(g111
S'`\xd8\xce\xd1h\xbb\xe9?'
p2301
tp2302
Rp2303
s(g171
g6
I3
g171
g5
I4
tp2304
g108
(g111
S'>\x99\xb0\xc0\x96\xb1\xf8?'
p2305
tp2306
Rp2307
s(g171
g5
I3
g171
g9
I4
tp2308
g108
(g111
S'\x12\xf2\xcb\x91\xc8\xb0\x12@'
p2309
tp2310
Rp2311
s(g171
g6
I1
g171
g8
I3
tp2312
g108
(g111
S'\xfa\x97\xef\x11\x92\x80\xf4?'
p2313
tp2314
Rp2315
s(g171
g9
I3
g171
g7
I0
tp2316
g108
(g111
S'{\xeb\xc8\xde\xef\xb5\xd1?'
p2317
tp2318
Rp2319
s(g171
g6
I3
g171
g4
I0
tp2320
g108
(g111
S'0\xba\xa9o\x15n\xb3?'
p2321
tp2322
Rp2323
s(g171
g5
I3
g171
g4
I0
tp2324
g108
(g111
S'R\xa4,\xaa<\x1f\xcf?'
p2325
tp2326
Rp2327
s(g171
g4
I1
g171
g8
I3
tp2328
g108
(g111
S'\x1f\x7f\x1b\xcb\xb0\xb1\xf3?'
p2329
tp2330
Rp2331
s(g171
g6
I1
g171
g7
I1
tp2332
g108
(g111
S'\x82\xe14R%\x01\xca?'
p2333
tp2334
Rp2335
s(g171
g4
I3
g171
g9
I2
tp2336
g108
(g111
S'\xca\xb1\xd3Td\xe4\x0f@'
p2337
tp2338
Rp2339
s(g171
g7
I1
g171
g4
I4
tp2340
g108
(g111
S'\xbb\xce\x1d~M\x85\xba?'
p2341
tp2342
Rp2343
s(g171
g5
I3
g171
g5
I4
tp2344
g108
(g111
S'\x85\xb8\xda;\x12\xf9\x1c@'
p2345
tp2346
Rp2347
s(g171
g9
I0
g171
g5
I2
tp2348
g108
(g111
S'd\x8d\xf62\xb34\xdf?'
p2349
tp2350
Rp2351
s(g171
g5
I1
g171
g6
I3
tp2352
g108
(g111
S'\x0e\x95g\xd8\\H\xf6?'
p2353
tp2354
Rp2355
s(g171
g5
I0
g171
g7
I2
tp2356
g108
(g111
S'\xff\xec\xf5\xf9G\xa6\xca?'
p2357
tp2358
Rp2359
s(g171
g8
I0
g171
g6
I2
tp2360
g108
(g111
S'o1v;\xb2H\xcf?'
p2361
tp2362
Rp2363
s(g171
g6
I4
g171
g9
I4
tp2364
g108
(g111
S'4A\xf1\xb6C.\x10@'
p2365
tp2366
Rp2367
s(g171
g4
I2
g171
g8
I0
tp2368
g108
(g111
S'6\x94N\x14"\xfc\xe0?'
p2369
tp2370
Rp2371
s(g171
g9
I0
g171
g4
I2
tp2372
g108
(g111
S'\x91\x0c\x90\x9d[\xdc\xca?'
p2373
tp2374
Rp2375
s(g171
g6
I2
g171
g6
I2
tp2376
g108
(g111
S'\x01ZU\xed\x18\xda\x06@'
p2377
tp2378
Rp2379
s(g171
g9
I3
g171
g4
I4
tp2380
g108
(g111
S'U\xba\xab\xb4\x8b\xcf\xed?'
p2381
tp2382
Rp2383
s(g171
g6
I2
g171
g7
I1
tp2384
g108
(g111
S'\x82\xe14R%\x01\xca?'
p2385
tp2386
Rp2387
s(g171
g6
I4
g171
g4
I0
tp2388
g108
(g111
S'0\xba\xa9o\x15n\xb3?'
p2389
tp2390
Rp2391
s(g171
g4
I2
g171
g9
I4
tp2392
g108
(g111
S'\xca\xb1\xd3Td\xe4\x0f@'
p2393
tp2394
Rp2395
s(g171
g7
I1
g171
g5
I2
tp2396
g108
(g111
S'\xe4\xde\xeb\xe4\x04\xfb\xc3?'
p2397
tp2398
Rp2399
s(g171
g6
I4
g171
g5
I4
tp2400
g108
(g111
S'\xe9\xc6\xe3!Tw\xfa?'
p2401
tp2402
Rp2403
s(g171
g5
I4
g171
g8
I4
tp2404
g108
(g111
S'\x8c\xbf\x07\xe5\xada\x01@'
p2405
tp2406
Rp2407
s(g171
g5
I2
g171
g8
I2
tp2408
g108
(g111
S'D\xf1#|\x91C\xfe?'
p2409
tp2410
Rp2411
s(g171
g5
I4
g171
g5
I0
tp2412
g108
(g111
S'\xd8<\xd1P\xfeR\xf1?'
p2413
tp2414
Rp2415
s(g171
g4
I0
g171
g4
I2
tp2416
g108
(g111
S'\xb5\\M\xfa\xa3l\xea?'
p2417
tp2418
Rp2419
s(g171
g9
I2
g171
g5
I2
tp2420
g108
(g111
S'\xaf\xda\xc8\xe8h4\xf9?'
p2421
tp2422
Rp2423
s(g171
g5
I4
g171
g4
I4
tp2424
g108
(g111
S'\xb8\xb7m\xb8O\x1c\xf4?'
p2425
tp2426
Rp2427
s(g171
g4
I2
g171
g4
I1
tp2428
g108
(g111
S'%\xe3H\xee3\x92\x01@'
p2429
tp2430
Rp2431
s(g171
g4
I0
g171
g5
I2
tp2432
g108
(g111
S"'\xd9\x0f\xa5h\xd2\xdd?"
p2433
tp2434
Rp2435
s(g171
g8
I3
g171
g6
I3
tp2436
g108
(g111
S'\xd2\xd0\xae\xc8\x1cx\xee?'
p2437
tp2438
Rp2439
s(g171
g6
I3
g171
g8
I4
tp2440
g108
(g111
S'\x02\xee\xd0\xceR\xbf\xf7?'
p2441
tp2442
Rp2443
s(g171
g5
I3
g171
g8
I4
tp2444
g108
(g111
S'\x17\xdc\x8cQ\xbbA\x00@'
p2445
tp2446
Rp2447
s(g171
g9
I4
g171
g5
I4
tp2448
g108
(g111
S'U,\x99\x1e\x1d\xa7\xfd?'
p2449
tp2450
Rp2451
s(g171
g8
I2
g171
g8
I1
tp2452
g108
(g111
S'\xfe$\xf8M\xa5s\xfd?'
p2453
tp2454
Rp2455
s(g171
g9
I1
g171
g9
I3
tp2456
g108
(g111
S'\x1f\x86\x14i\xb8\xb9\x07@'
p2457
tp2458
Rp2459
s(g171
g6
I3
g171
g5
I0
tp2460
g108
(g111
S',\xc7\x8e9\xd7\xe3\xdb?'
p2461
tp2462
Rp2463
s(g171
g5
I3
g171
g9
I0
tp2464
g108
(g111
S' \xfc\x900\xadC\xf5?'
p2465
tp2466
Rp2467
s(g171
g4
I1
g171
g9
I1
tp2468
g108
(g111
S'h\x94\xca\xcd\xf4#\x05@'
p2469
tp2470
Rp2471
s(g171
g4
I4
g171
g7
I2
tp2472
g108
(g111
S'H\xb5\xbcZ65\xf2?'
p2473
tp2474
Rp2475
s(g171
g9
I1
g171
g4
I2
tp2476
g108
(g111
S']\x8fvy20\xe0?'
p2477
tp2478
Rp2479
s(g171
g6
I3
g171
g4
I4
tp2480
g108
(g111
S'L\xa9n\x95\x0c\x86\xdd?'
p2481
tp2482
Rp2483
s(g171
g9
I0
g171
g6
I2
tp2484
g108
(g111
S'\x91\x16\xa7\xfd\xfb\xb7\xe2?'
p2485
tp2486
Rp2487
s(g171
g7
I2
g171
g7
I2
tp2488
g108
(g111
S'~\xfa\xf1_.w\x04@'
p2489
tp2490
Rp2491
s(g171
g6
I0
g171
g6
I3
tp2492
g108
(g111
S'\xf0\x0fU\xce\xe2/\xeb?'
p2493
tp2494
Rp2495
s(g171
g5
I0
g171
g6
I2
tp2496
g108
(g111
S'vN^\x14\xfb\xb7\xdc?'
p2497
tp2498
Rp2499
s(g171
g8
I0
g171
g5
I2
tp2500
g108
(g111
S'\xafw&^\xbbm\xcc?'
p2501
tp2502
Rp2503
s(g171
g6
I4
g171
g8
I4
tp2504
g108
(g111
S'E\x1d\xda L\x9a\xfa?'
p2505
tp2506
Rp2507
s(g171
g4
I2
g171
g7
I0
tp2508
g108
(g111
S'\xd6\r\x0fd\x16\x13\xc2?'
p2509
tp2510
Rp2511
s(g171
g6
I2
g171
g7
I2
tp2512
g108
(g111
S'\x17%\r\xdfR\xbe\xe5?'
p2513
tp2514
Rp2515
s(g171
g6
I4
g171
g9
I0
tp2516
g108
(g111
S'x$\xc4\xecH\xc6\xf8?'
p2517
tp2518
Rp2519
s(g171
g4
I2
g171
g8
I4
tp2520
g108
(g111
S'2/\xfa\xf2E\x8a\xfe?'
p2521
tp2522
Rp2523
s(g171
g9
I3
g171
g5
I1
tp2524
g108
(g111
S'\x1d\xb0\x18B\xed\xf1\xf7?'
p2525
tp2526
Rp2527
s(g171
g7
I1
g171
g7
I2
tp2528
g108
(g111
S'\xa6X\x1d25<\xf8?'
p2529
tp2530
Rp2531
s(g171
g4
I1
g171
g6
I0
tp2532
g108
(g111
S'f\x08\xd9\x01\xe9+\xc3?'
p2533
tp2534
Rp2535
s(g171
g6
I1
g171
g5
I0
tp2536
g108
(g111
S',\xc7\x8e9\xd7\xe3\xdb?'
p2537
tp2538
Rp2539
s(g171
g9
I1
g171
g5
I1
tp2540
g108
(g111
S'\x05?\xc3\xda\xca\x80\xf0?'
p2541
tp2542
Rp2543
s(g171
g8
I1
g171
g9
I2
tp2544
g108
(g111
S'\xfa\xe7y\x92\xd5\x17\x02@'
p2545
tp2546
Rp2547
s(g171
g9
I2
g171
g9
I2
tp2548
g108
(g111
S'\xb9\x94\xaaS\xbfr\x12@'
p2549
tp2550
Rp2551
s(g171
g5
I4
g171
g8
I0
tp2552
g108
(g111
S'%\x085\xf5\xb7\xd0\xd6?'
p2553
tp2554
Rp2555
s(g171
g5
I1
g171
g8
I2
tp2556
g108
(g111
S'\xf2Q\xb8\xa1\xa9\xab\xfd?'
p2557
tp2558
Rp2559
s(g171
g8
I2
g171
g4
I2
tp2560
g108
(g111
S'\xfc\x01?lD\xdb\xe3?'
p2561
tp2562
Rp2563
s(g171
g9
I2
g171
g8
I2
tp2564
g108
(g111
S'\xa14zrb\xe2\x00@'
p2565
tp2566
Rp2567
s(g171
g9
I0
g171
g9
I3
tp2568
g108
(g111
S'\xe7\x9a\x98\xdb\x06\xab\xf2?'
p2569
tp2570
Rp2571
s(g171
g8
I2
g171
g5
I2
tp2572
g108
(g111
S'\xea\xee\x8c\x8b\xdd\xda\xf2?'
p2573
tp2574
Rp2575
s(g171
g6
I3
g171
g9
I4
tp2576
g108
(g111
S'u\xda\xb1\r\x94r\r@'
p2577
tp2578
Rp2579
s(g171
g5
I4
g171
g9
I0
tp2580
g108
(g111
S' \xfc\x900\xadC\xf5?'
p2581
tp2582
Rp2583
s(g171
g8
I2
g171
g6
I1
tp2584
g108
(g111
S'\xfd\xca\x95\xc05N\xea?'
p2585
tp2586
Rp2587
s(g171
g9
I3
g171
g9
I0
tp2588
g108
(g111
S'\xe7\x9a\x98\xdb\x06\xab\xf2?'
p2589
tp2590
Rp2591
s(g171
g4
I4
g171
g9
I2
tp2592
g108
(g111
S'\xca\xb1\xd3Td\xe4\x0f@'
p2593
tp2594
Rp2595
s(g171
g7
I0
g171
g6
I2
tp2596
g108
(g111
S'\xeb\xbd\xfd\xdf\x83\xb3\xc3?'
p2597
tp2598
Rp2599
s(g171
g9
I1
g171
g6
I4
tp2600
g108
(g111
S'\xc2\xf1\xb1\xf3\rv\xef?'
p2601
tp2602
Rp2603
s(g171
g6
I3
g171
g8
I0
tp2604
g108
(g111
S'\xce\xbb*4\xe4a\xd8?'
p2605
tp2606
Rp2607
s(g171
g5
I3
g171
g8
I0
tp2608
g108
(g111
S'%\x085\xf5\xb7\xd0\xd6?'
p2609
tp2610
Rp2611
s(g171
g5
I0
g171
g8
I4
tp2612
g108
(g111
S'%\x085\xf5\xb7\xd0\xd6?'
p2613
tp2614
Rp2615
s(g171
g6
I1
g171
g9
I1
tp2616
g108
(g111
S'`\xa2\xf1\x91\xe2u\x03@'
p2617
tp2618
Rp2619
s(g171
g7
I2
g171
g9
I3
tp2620
g108
(g111
S'\xe1\xbb\x9f!l\x0e\x02@'
p2621
tp2622
Rp2623
s(g171
g5
I0
g171
g4
I2
tp2624
g108
(g111
S'R\xa4,\xaa<\x1f\xcf?'
p2625
tp2626
Rp2627
s(g171
g6
I2
g171
g9
I2
tp2628
g108
(g111
S'\x832\x81\xad\xa0\x88\n@'
p2629
tp2630
Rp2631
s(g171
g6
I0
g171
g5
I1
tp2632
g108
(g111
S',\xc7\x8e9\xd7\xe3\xdb?'
p2633
tp2634
Rp2635
s(g171
g7
I2
g171
g5
I4
tp2636
g108
(g111
S'\x0bNd<\xad\xe7\xec?'
p2637
tp2638
Rp2639
s(g171
g8
I3
g171
g8
I0
tp2640
g108
(g111
S'3\xf1\xce\xf7oP\xee?'
p2641
tp2642
Rp2643
s(g171
g4
I0
g171
g8
I3
tp2644
g108
(g111
S'6\x94N\x14"\xfc\xe0?'
p2645
tp2646
Rp2647
s(g171
g8
I1
g171
g7
I0
tp2648
g108
(g111
S'\x83\x8c\x93\r0\xa6\xdd?'
p2649
tp2650
Rp2651
s(g171
g6
I4
g171
g8
I0
tp2652
g108
(g111
S'\xce\xbb*4\xe4a\xd8?'
p2653
tp2654
Rp2655
s(g171
g9
I3
g171
g4
I3
tp2656
g108
(g111
S'U\xba\xab\xb4\x8b\xcf\xed?'
p2657
tp2658
Rp2659
s(g171
g7
I1
g171
g8
I2
tp2660
g108
(g111
S'\x92\x04T^B\xec\xe1?'
p2661
tp2662
Rp2663
s(g171
g7
I2
g171
g8
I0
tp2664
g108
(g111
S'\xc8\xda\xd7\\_\x8b\xe1?'
p2665
tp2666
Rp2667
s(g171
g6
I1
g171
g6
I0
tp2668
g108
(g111
S'\xf0\x0fU\xce\xe2/\xeb?'
p2669
tp2670
Rp2671
s(g171
g5
I1
g171
g4
I2
tp2672
g108
(g111
S'\xc9\xa1\x8bv`\xab\xec?'
p2673
tp2674
Rp2675
s(g171
g8
I3
g171
g9
I2
tp2676
g108
(g111
S'\xa5\x7fhP\x0e\xac\x0c@'
p2677
tp2678
Rp2679
s(g171
g4
I4
g171
g6
I3
tp2680
g108
(g111
S'*\xd3\xfe\xd7\x7f!\xed?'
p2681
tp2682
Rp2683
s(g171
g8
I4
g171
g5
I3
tp2684
g108
(g111
S'\xe7\xfb4c\xa8A\xf4?'
p2685
tp2686
Rp2687
s(g171
g4
I1
g171
g6
I4
tp2688
g108
(g111
S'\xed\x9f\xbaP\xb5`\xe0?'
p2689
tp2690
Rp2691
s(g171
g6
I1
g171
g5
I4
tp2692
g108
(g111
S'?-\xb3\xab\xc3\xa3\xf5?'
p2693
tp2694
Rp2695
s(g171
g5
I1
g171
g5
I2
tp2696
g108
(g111
S'\x18s\xe1\xb8\xdd\xf6\x11@'
p2697
tp2698
Rp2699
s(g171
g6
I0
g171
g8
I2
tp2700
g108
(g111
S'\xce\xbb*4\xe4a\xd8?'
p2701
tp2702
Rp2703
s(g171
g5
I0
g171
g8
I3
tp2704
g108
(g111
S'%\x085\xf5\xb7\xd0\xd6?'
p2705
tp2706
Rp2707
s(g171
g7
I2
g171
g4
I3
tp2708
g108
(g111
S'\x9a \x9e\xf7\xcb_\xd9?'
p2709
tp2710
Rp2711
s(g171
g5
I2
g171
g9
I2
tp2712
g108
(g111
S'V\x06@\x81\xd0,\x11@'
p2713
tp2714
Rp2715
s(g171
g8
I4
g171
g6
I1
tp2716
g108
(g111
S'\xfd\xca\x95\xc05N\xea?'
p2717
tp2718
Rp2719
s(g171
g7
I2
g171
g5
I2
tp2720
g108
(g111
S'\xfe\xa5k\x92\xc1G\xe8?'
p2721
tp2722
Rp2723
s(g171
g6
I2
g171
g5
I3
tp2724
g108
(g111
S'\x94k}_\xd9\xeb\xf6?'
p2725
tp2726
Rp2727
s(g171
g6
I0
g171
g9
I2
tp2728
g108
(g111
S'x$\xc4\xecH\xc6\xf8?'
p2729
tp2730
Rp2731
s(g171
g7
I0
g171
g4
I2
tp2732
g108
(g111
S'\xd2\x072\x9d\xc2\xd0\xab?'
p2733
tp2734
Rp2735
s(g171
g7
I1
g171
g9
I4
tp2736
g108
(g111
S'Vaf\x93\xc5\xf7\xf1?'
p2737
tp2738
Rp2739
s(g171
g9
I3
g171
g8
I0
tp2740
g108
(g111
S'\x99\x18\xe0j\xefN\xe0?'
p2741
tp2742
Rp2743
s(g171
g6
I3
g171
g9
I0
tp2744
g108
(g111
S'x$\xc4\xecH\xc6\xf8?'
p2745
tp2746
Rp2747
s(g171
g5
I3
g171
g7
I0
tp2748
g108
(g111
S'\xff\xec\xf5\xf9G\xa6\xca?'
p2749
tp2750
Rp2751
s(g171
g9
I2
g171
g8
I1
tp2752
g108
(g111
S"#C^\x82'O\xf5?"
p2753
tp2754
Rp2755
s(g171
g4
I1
g171
g7
I1
tp2756
g108
(g111
S'1\xba\xbd\x06\x97\xb5\xc4?'
p2757
tp2758
Rp2759
s(g171
g5
I4
g171
g6
I1
tp2760
g108
(g111
S'\x0e\x95g\xd8\\H\xf6?'
p2761
tp2762
Rp2763
s(g171
g4
I2
g171
g6
I4
tp2764
g108
(g111
S'\xe7\x157\xb8B\x04\xeb?'
p2765
tp2766
Rp2767
s(g171
g8
I4
g171
g9
I0
tp2768
g108
(g111
S'\xfa\xd9X5\xaa\xb1\xeb?'
p2769
tp2770
Rp2771
s(g171
g9
I2
g171
g6
I3
tp2772
g108
(g111
S'\x97T\x91\xf1>\x0c\xf4?'
p2773
tp2774
Rp2775
s(g171
g8
I3
g171
g9
I0
tp2776
g108
(g111
S'\xfa\xd9X5\xaa\xb1\xeb?'
p2777
tp2778
Rp2779
s(g171
g8
I0
g171
g4
I2
tp2780
g108
(g111
S'?\xa4\xe6h\x1e\x16\xc6?'
p2781
tp2782
Rp2783
s(g171
g6
I4
g171
g7
I0
tp2784
g108
(g111
S'\xe7\xbfb\xe1\xf3\xf2\xc9?'
p2785
tp2786
Rp2787
s(g171
g4
I1
g171
g5
I4
tp2788
g108
(g111
S'\xa86\xff\xb3\xae\x9d\xf5?'
p2789
tp2790
Rp2791
s(g171
g4
I3
g171
g8
I3
tp2792
g108
(g111
S'\x86@\xd2\xb1\xeb\xaa\x01@'
p2793
tp2794
Rp2795
s(g171
g8
I3
g171
g8
I4
tp2796
g108
(g111
S'\xec5}\x9c\xe2\xa3\n@'
p2797
tp2798
Rp2799
s(g171
g6
I3
g171
g6
I1
tp2800
g108
(g111
S'~\x1a\xf8\xaa\x8f>\x01@'
p2801
tp2802
Rp2803
s(g171
g5
I3
g171
g6
I3
tp2804
g108
(g111
S'\xd7\x82\x81\xbajm\xf9?'
p2805
tp2806
Rp2807
s(g171
g4
I1
g171
g4
I0
tp2808
g108
(g111
S'\xb5\\M\xfa\xa3l\xea?'
p2809
tp2810
Rp2811
s(g171
g8
I1
g171
g4
I1
tp2812
g108
(g111
S'\xc3\xb6\xe5t\xfd\x9b\xd9?'
p2813
tp2814
Rp2815
s(g171
g4
I3
g171
g7
I1
tp2816
g108
(g111
S'Z\xe6\xd0\x9f\xb4;\xd1?'
p2817
tp2818
Rp2819
s(g171
g5
I2
g171
g5
I2
tp2820
g108
(g111
S'\xdce\xd7\x0bB\x9e\x1a@'
p2821
tp2822
Rp2823
s(g171
g6
I1
g171
g6
I4
tp2824
g108
(g111
S'~\x1a\xf8\xaa\x8f>\x01@'
p2825
tp2826
Rp2827
s(g171
g7
I2
g171
g6
I3
tp2828
g108
(g111
S'\x9e\xd3{\x18gp\xe2?'
p2829
tp2830
Rp2831
s(g171
g6
I0
g171
g7
I2
tp2832
g108
(g111
S'\xe7\xbfb\xe1\xf3\xf2\xc9?'
p2833
tp2834
Rp2835
s(g171
g5
I0
g171
g9
I1
tp2836
g108
(g111
S' \xfc\x900\xadC\xf5?'
p2837
tp2838
Rp2839
s(g171
g7
I0
g171
g7
I1
tp2840
g108
(g111
S'\x90x\xe3\x83*\xf1\xec?'
p2841
tp2842
Rp2843
s(g171
g5
I2
g171
g4
I2
tp2844
g108
(g111
S'\x04Q\xd8kG\xb7\xef?'
p2845
tp2846
Rp2847
s(g171
g6
I2
g171
g4
I1
tp2848
g108
(g111
S'1-\x9e\x1c=\x99\xd0?'
p2849
tp2850
Rp2851
s(g171
g4
I0
g171
g6
I2
tp2852
g108
(g111
S'f\x08\xd9\x01\xe9+\xc3?'
p2853
tp2854
Rp2855
s(g171
g6
I4
g171
g6
I3
tp2856
g108
(g111
S'\x9b\xfe\xcc\xcc*\xb2\t@'
p2857
tp2858
Rp2859
s(g171
g5
I2
g171
g6
I1
tp2860
g108
(g111
S'\x0e\x95g\xd8\\H\xf6?'
p2861
tp2862
Rp2863
s(g171
g7
I1
g171
g9
I0
tp2864
g108
(g111
S'\xc3\xdf\xd1\xaa\xf0\xcb\xe1?'
p2865
tp2866
Rp2867
s(g171
g4
I3
g171
g4
I0
tp2868
g108
(g111
S'\xb5\\M\xfa\xa3l\xea?'
p2869
tp2870
Rp2871
s(g171
g9
I4
g171
g4
I3
tp2872
g108
(g111
S'U\xba\xab\xb4\x8b\xcf\xed?'
p2873
tp2874
Rp2875
s(g171
g4
I4
g171
g8
I2
tp2876
g108
(g111
S'2/\xfa\xf2E\x8a\xfe?'
p2877
tp2878
Rp2879
s(g171
g9
I2
g171
g4
I3
tp2880
g108
(g111
S'\xef\n\xa3\xda\xdek\xe8?'
p2881
tp2882
Rp2883
s(g171
g4
I2
g171
g5
I4
tp2884
g108
(g111
S'\xd2\xa9\xf1j\x19d\xfe?'
p2885
tp2886
Rp2887
s(g171
g9
I0
g171
g7
I2
tp2888
g108
(g111
S'{\xeb\xc8\xde\xef\xb5\xd1?'
p2889
tp2890
Rp2891
s(g171
g8
I2
g171
g9
I3
tp2892
g108
(g111
S'\xa5\x7fhP\x0e\xac\x0c@'
p2893
tp2894
Rp2895
s(g171
g5
I0
g171
g5
I2
tp2896
g108
(g111
S'\xd8<\xd1P\xfeR\xf1?'
p2897
tp2898
Rp2899
s(g171
g8
I0
g171
g8
I2
tp2900
g108
(g111
S'3\xf1\xce\xf7oP\xee?'
p2901
tp2902
Rp2903
s(g171
g4
I2
g171
g6
I0
tp2904
g108
(g111
S'f\x08\xd9\x01\xe9+\xc3?'
p2905
tp2906
Rp2907
s(g171
g6
I2
g171
g8
I2
tp2908
g108
(g111
S'\xc0\xbe\xc7|Y\xe4\xf4?'
p2909
tp2910
Rp2911
s(g171
g6
I0
g171
g4
I3
tp2912
g108
(g111
S'0\xba\xa9o\x15n\xb3?'
p2913
tp2914
Rp2915
s(g171
g8
I4
g171
g9
I4
tp2916
g108
(g111
S'\x95\xa2\xe3\xd4/\xa7\x14@'
p2917
tp2918
Rp2919
s(g171
g8
I0
g171
g9
I2
tp2920
g108
(g111
S'\xfa\xd9X5\xaa\xb1\xeb?'
p2921
tp2922
Rp2923
s(g171
g9
I1
g171
g8
I2
tp2924
g108
(g111
S"#C^\x82'O\xf5?"
p2925
tp2926
Rp2927
s(g171
g4
I1
g171
g8
I4
tp2928
g108
(g111
S'\x1f\x7f\x1b\xcb\xb0\xb1\xf3?'
p2929
tp2930
Rp2931
s(g171
g8
I3
g171
g9
I4
tp2932
g108
(g111
S'4\xf1\x8b~\x9b~\x11@'
p2933
tp2934
Rp2935
s(g171
g7
I1
g171
g4
I3
tp2936
g108
(g111
S'\xbb\xce\x1d~M\x85\xba?'
p2937
tp2938
Rp2939
s(g171
g5
I3
g171
g5
I1
tp2940
g108
(g111
S'\x18s\xe1\xb8\xdd\xf6\x11@'
p2941
tp2942
Rp2943
s(g171
g4
I1
g171
g5
I0
tp2944
g108
(g111
S"'\xd9\x0f\xa5h\xd2\xdd?"
p2945
tp2946
Rp2947
s(g171
g8
I1
g171
g5
I3
tp2948
g108
(g111
S'dT\x8e\x16\x0c\xe6\xe6?'
p2949
tp2950
Rp2951
s(g171
g5
I2
g171
g6
I2
tp2952
g108
(g111
S'[\xec\x0e\x102\x9a\xf7?'
p2953
tp2954
Rp2955
s(g171
g4
I1
g171
g4
I4
tp2956
g108
(g111
S'%\xe3H\xee3\x92\x01@'
p2957
tp2958
Rp2959
s(g171
g5
I4
g171
g7
I0
tp2960
g108
(g111
S'\xff\xec\xf5\xf9G\xa6\xca?'
p2961
tp2962
Rp2963
s(g171
g4
I2
g171
g9
I1
tp2964
g108
(g111
S'h\x94\xca\xcd\xf4#\x05@'
p2965
tp2966
Rp2967
s(g171
g8
I4
g171
g4
I1
tp2968
g108
(g111
S'\xc3\xb6\xe5t\xfd\x9b\xd9?'
p2969
tp2970
Rp2971
s(g171
g9
I2
g171
g7
I2
tp2972
g108
(g111
S'm:\xab\x97=\x1e\xeb?'
p2973
tp2974
Rp2975
s(g171
g4
I0
g171
g7
I2
tp2976
g108
(g111
S'\xd6\r\x0fd\x16\x13\xc2?'
p2977
tp2978
Rp2979
s(g171
g6
I4
g171
g5
I1
tp2980
g108
(g111
S'?-\xb3\xab\xc3\xa3\xf5?'
p2981
tp2982
Rp2983
s(g171
g4
I1
g171
g6
I1
tp2984
g108
(g111
S'\x00X\xad\xf8<\xcf\xdf?'
p2985
tp2986
Rp2987
s(g171
g8
I1
g171
g8
I2
tp2988
g108
(g111
S'\xfe$\xf8M\xa5s\xfd?'
p2989
tp2990
Rp2991
s(g171
g4
I4
g171
g4
I2
tp2992
g108
(g111
S'`\xe5\xcf\xce5\xfa\x03@'
p2993
tp2994
Rp2995
s(g171
g7
I0
g171
g5
I2
tp2996
g108
(g111
S';\xa7\xad@5\xa6\xc3?'
p2997
tp2998
Rp2999
s(g171
g5
I1
g171
g9
I3
tp3000
g108
(g111
S'e\x98\x08C\x11Q\x10@'
p3001
tp3002
Rp3003
s(g171
g4
I3
g171
g5
I0
tp3004
g108
(g111
S"'\xd9\x0f\xa5h\xd2\xdd?"
p3005
tp3006
Rp3007
s(g171
g7
I1
g171
g5
I4
tp3008
g108
(g111
S'\xfe.\xdd8\xdc:\xcd?'
p3009
tp3010
Rp3011
s(g171
g4
I4
g171
g5
I2
tp3012
g108
(g111
S'\xd2\xa9\xf1j\x19d\xfe?'
p3013
tp3014
Rp3015
s(g171
g5
I4
g171
g4
I1
tp3016
g108
(g111
S'0\x89\n\x83\xed\x8e\xe6?'
p3017
tp3018
Rp3019
s(g171
g9
I4
g171
g9
I1
tp3020
g108
(g111
S'\x1f\x86\x14i\xb8\xb9\x07@'
p3021
tp3022
Rp3023
s(g171
g4
I3
g171
g4
I4
tp3024
g108
(g111
S'\x8a`\x00\x961f\t@'
p3025
tp3026
Rp3027
s(g171
g9
I1
g171
g8
I1
tp3028
g108
(g111
S"#C^\x82'O\xf5?"
p3029
tp3030
Rp3031
s(g171
g8
I3
g171
g6
I4
tp3032
g108
(g111
S'\xd2\xd0\xae\xc8\x1cx\xee?'
p3033
tp3034
Rp3035
s(g171
g8
I4
g171
g7
I0
tp3036
g108
(g111
S'\x83\x8c\x93\r0\xa6\xdd?'
p3037
tp3038
Rp3039
s(g171
g8
I0
g171
g7
I2
tp3040
g108
(g111
S'\x83\x8c\x93\r0\xa6\xdd?'
p3041
tp3042
Rp3043
s(g171
g7
I1
g171
g6
I1
tp3044
g108
(g111
S'\xa1\xb7\x0e|J\xbe\xc3?'
p3045
tp3046
Rp3047
s(g171
g4
I2
g171
g5
I0
tp3048
g108
(g111
S"'\xd9\x0f\xa5h\xd2\xdd?"
p3049
tp3050
Rp3051
s(g171
g8
I2
g171
g6
I3
tp3052
g108
(g111
S'\x17\xc6\x19c;\xce\xea?'
p3053
tp3054
Rp3055
s(g171
g8
I3
g171
g7
I0
tp3056
g108
(g111
S'\x83\x8c\x93\r0\xa6\xdd?'
p3057
tp3058
Rp3059
s(g171
g7
I2
g171
g5
I3
tp3060
g108
(g111
S'\x04\xfagg\xb7\x97\xea?'
p3061
tp3062
Rp3063
s(g171
g9
I1
g171
g6
I2
tp3064
g108
(g111
S'\xc2\xf1\xb1\xf3\rv\xef?'
p3065
tp3066
Rp3067
s(g171
g4
I1
g171
g9
I4
tp3068
g108
(g111
S'h\x94\xca\xcd\xf4#\x05@'
p3069
tp3070
Rp3071
s(g171
g6
I1
g171
g8
I4
tp3072
g108
(g111
S'\xfa\x97\xef\x11\x92\x80\xf4?'
p3073
tp3074
Rp3075
s(g171
g9
I3
g171
g7
I1
tp3076
g108
(g111
S',\xec>\x96\x8e\xe1\xe1?'
p3077
tp3078
Rp3079
s(g171
g6
I3
g171
g4
I1
tp3080
g108
(g111
S'1-\x9e\x1c=\x99\xd0?'
p3081
tp3082
Rp3083
s(g171
g4
I1
g171
g8
I0
tp3084
g108
(g111
S'6\x94N\x14"\xfc\xe0?'
p3085
tp3086
Rp3087
s(g171
g6
I1
g171
g7
I0
tp3088
g108
(g111
S'\xe7\xbfb\xe1\xf3\xf2\xc9?'
p3089
tp3090
Rp3091
s(g171
g9
I3
g171
g6
I3
tp3092
g108
(g111
S'\x99\xdc\xd4u\xdb?\xf6?'
p3093
tp3094
Rp3095
s(g171
g4
I3
g171
g9
I1
tp3096
g108
(g111
S'h\x94\xca\xcd\xf4#\x05@'
p3097
tp3098
Rp3099
s(g171
g5
I1
g171
g6
I2
tp3100
g108
(g111
S'\x0e\x95g\xd8\\H\xf6?'
p3101
tp3102
Rp3103
s(g171
g5
I0
g171
g7
I1
tp3104
g108
(g111
S'\xff\xec\xf5\xf9G\xa6\xca?'
p3105
tp3106
Rp3107
s(g171
g4
I2
g171
g8
I3
tp3108
g108
(g111
S'2/\xfa\xf2E\x8a\xfe?'
p3109
tp3110
Rp3111
s(g171
g9
I0
g171
g4
I3
tp3112
g108
(g111
S'\x91\x0c\x90\x9d[\xdc\xca?'
p3113
tp3114
Rp3115
s(g171
g6
I2
g171
g6
I1
tp3116
g108
(g111
S'~\x1a\xf8\xaa\x8f>\x01@'
p3117
tp3118
Rp3119
s(g171
g7
I0
g171
g9
I2
tp3120
g108
(g111
S'\xc3\xdf\xd1\xaa\xf0\xcb\xe1?'
p3121
tp3122
Rp3123
s(g171
g7
I0
g171
g8
I2
tp3124
g108
(g111
S'\xc8\xda\xd7\\_\x8b\xe1?'
p3125
tp3126
Rp3127
s(g171
g6
I1
g171
g4
I1
tp3128
g108
(g111
S'x\t\xdcR\x84\x1e\xd0?'
p3129
tp3130
Rp3131
s(g171
g4
I3
g171
g6
I0
tp3132
g108
(g111
S'f\x08\xd9\x01\xe9+\xc3?'
p3133
tp3134
Rp3135
s(g171
g7
I1
g171
g8
I0
tp3136
g108
(g111
S'\xc8\xda\xd7\\_\x8b\xe1?'
p3137
tp3138
Rp3139
s(g171
g5
I2
g171
g8
I3
tp3140
g108
(g111
S'D\xf1#|\x91C\xfe?'
p3141
tp3142
Rp3143
s(g171
g9
I3
g171
g9
I4
tp3144
g108
(g111
S'\xd2#\xe2\x8a5\xf2\x16@'
p3145
tp3146
Rp3147
s(g171
g7
I1
g171
g8
I4
tp3148
g108
(g111
S'}\xc0s+\xfds\xee?'
p3149
tp3150
Rp3151
s(g171
g4
I3
g171
g5
I4
tp3152
g108
(g111
S'\xe2]\x02l\xa5;\x01@'
p3153
tp3154
Rp3155
s(g171
g5
I2
g171
g7
I1
tp3156
g108
(g111
S'\xca2\xe8\xa7N\x19\xcb?'
p3157
tp3158
Rp3159
s(g171
g9
I2
g171
g5
I1
tp3160
g108
(g111
S'\x1d\xb0\x18B\xed\xf1\xf7?'
p3161
tp3162
Rp3163
s(g171
g6
I3
g171
g7
I1
tp3164
g108
(g111
S'\x1a]d\x95\xab\x16\xd2?'
p3165
tp3166
Rp3167
s(g171
g4
I2
g171
g4
I0
tp3168
g108
(g111
S'\xb5\\M\xfa\xa3l\xea?'
p3169
tp3170
Rp3171
s(g171
g4
I0
g171
g5
I3
tp3172
g108
(g111
S"'\xd9\x0f\xa5h\xd2\xdd?"
p3173
tp3174
Rp3175
s(g171
g8
I3
g171
g6
I0
tp3176
g108
(g111
S'o1v;\xb2H\xcf?'
p3177
tp3178
Rp3179
s(g171
g9
I4
g171
g9
I4
tp3180
g108
(g111
S'\xed\xb2\x19\xc2\xabq\x1b@'
p3181
tp3182
Rp3183
s(g171
g9
I1
g171
g9
I0
tp3184
g108
(g111
S'\xe7\x9a\x98\xdb\x06\xab\xf2?'
p3185
tp3186
Rp3187
s(g171
g9
I4
g171
g8
I0
tp3188
g108
(g111
S'\x99\x18\xe0j\xefN\xe0?'
p3189
tp3190
Rp3191
s(g171
g5
I3
g171
g9
I1
tp3192
g108
(g111
S'!\xa7\xe0~z\n\x08@'
p3193
tp3194
Rp3195
s(g171
g4
I1
g171
g9
I0
tp3196
g108
(g111
S'7)\xeek\xf5\x89\xf1?'
p3197
tp3198
Rp3199
s(g171
g6
I1
g171
g8
I0
tp3200
g108
(g111
S'\xce\xbb*4\xe4a\xd8?'
p3201
tp3202
Rp3203
s(g171
g5
I3
g171
g4
I3
tp3204
g108
(g111
S'\x1d\xf0,\xb7\xf9\xfb\xf1?'
p3205
tp3206
Rp3207
s(g171
g9
I0
g171
g6
I3
tp3208
g108
(g111
S'\x91\x16\xa7\xfd\xfb\xb7\xe2?'
p3209
tp3210
Rp3211
s(g171
g6
I0
g171
g6
I2
tp3212
g108
(g111
S'\xf0\x0fU\xce\xe2/\xeb?'
p3213
tp3214
Rp3215
s(g171
g5
I0
g171
g6
I3
tp3216
g108
(g111
S'vN^\x14\xfb\xb7\xdc?'
p3217
tp3218
Rp3219
s(g171
g8
I0
g171
g5
I3
tp3220
g108
(g111
S'\xafw&^\xbbm\xcc?'
p3221
tp3222
Rp3223
s(g171
g4
I2
g171
g7
I1
tp3224
g108
(g111
S'1\xba\xbd\x06\x97\xb5\xc4?'
p3225
tp3226
Rp3227
s(g171
g9
I0
g171
g5
I1
tp3228
g108
(g111
S'd\x8d\xf62\xb34\xdf?'
p3229
tp3230
Rp3231
s(g171
g8
I3
g171
g5
I0
tp3232
g108
(g111
S'\xafw&^\xbbm\xcc?'
p3233
tp3234
Rp3235
s(g171
g8
I0
g171
g6
I1
tp3236
g108
(g111
S'o1v;\xb2H\xcf?'
p3237
tp3238
Rp3239
s(g171
g6
I4
g171
g9
I1
tp3240
g108
(g111
S'K(\x1cf\xd9\xd1\x04@'
p3241
tp3242
Rp3243
s(g171
g7
I1
g171
g5
I1
tp3244
g108
(g111
S'\xe4\xde\xeb\xe4\x04\xfb\xc3?'
p3245
tp3246
Rp3247
s(g171
g6
I4
g171
g4
I3
tp3248
g108
(g111
S'L\xa9n\x95\x0c\x86\xdd?'
p3249
tp3250
Rp3251
s(g171
g4
I0
g171
g9
I3
tp3252
g108
(g111
S'7)\xeek\xf5\x89\xf1?'
p3253
tp3254
Rp3255
s(g171
g6
I1
g171
g5
I3
tp3256
g108
(g111
S'?-\xb3\xab\xc3\xa3\xf5?'
p3257
tp3258
Rp3259
s(g171
g8
I4
g171
g6
I4
tp3260
g108
(g111
S'\xc7\xed!\x17\xff\x10\xf1?'
p3261
tp3262
Rp3263
s(g171
g5
I4
g171
g8
I1
tp3264
g108
(g111
S'46\xda\xd3\x90`\xf2?'
p3265
tp3266
Rp3267
s(g171
g5
I1
g171
g8
I1
tp3268
g108
(g111
S'\xa7\x99\xb8\xbc\xdf\xfb\xf1?'
p3269
tp3270
Rp3271
s(g171
g4
I3
g171
g6
I4
tp3272
g108
(g111
S'*\xd3\xfe\xd7\x7f!\xed?'
p3273
tp3274
Rp3275
s(g171
g8
I3
g171
g4
I4
tp3276
g108
(g111
S'\x1br\xf3\x9dg\xf9\xe6?'
p3277
tp3278
Rp3279
s(g171
g9
I2
g171
g8
I3
tp3280
g108
(g111
S'\xa14zrb\xe2\x00@'
p3281
tp3282
Rp3283
s(g171
g5
I4
g171
g5
I3
tp3284
g108
(g111
S'\x85\xb8\xda;\x12\xf9\x1c@'
p3285
tp3286
Rp3287
s(g171
g9
I0
g171
g9
I2
tp3288
g108
(g111
S'\xe7\x9a\x98\xdb\x06\xab\xf2?'
p3289
tp3290
Rp3291
s(g171
g4
I0
g171
g4
I1
tp3292
g108
(g111
S'\xb5\\M\xfa\xa3l\xea?'
p3293
tp3294
Rp3295
s(g171
g8
I2
g171
g5
I3
tp3296
g108
(g111
S'\xea\xee\x8c\x8b\xdd\xda\xf2?'
p3297
tp3298
Rp3299
s(g171
g9
I4
g171
g4
I4
tp3300
g108
(g111
S'\xde4ZG\x9c\x99\xf1?'
p3301
tp3302
Rp3303
s(g171
g4
I2
g171
g4
I4
tp3304
g108
(g111
S'`\xe5\xcf\xce5\xfa\x03@'
p3305
tp3306
Rp3307
ssS'population'
p3308
g19
(g20
g21
Ntp3309
Rp3310
(dp3311
g25
g26
sg27
g28
sg29
g19
(g30
g21
Ntp3312
Rp3313
((lp3314
g34
(g35
(dp3315
g37
g38
(g39
(I0
tp3316
g41
tp3317
Rp3318
(I1
(I6
tp3319
g48
I00
(lp3320
S'age_group_1'
p3321
aS'age_group_2'
p3322
aS'age_group_3'
p3323
aS'age_group_4'
p3324
aS'age_group_5'
p3325
aS'age_group_6'
p3326
atp3327
bsg54
Nstp3328
Rp3329
ag34
(g35
(dp3330
g37
g38
(g39
(I0
tp3331
g41
tp3332
Rp3333
(I1
(I1
tp3334
g48
I00
(lp3335
VIle-de-France
p3336
atp3337
bsg54
Nstp3338
Rp3339
a(lp3340
g38
(g39
(I0
tp3341
g41
tp3342
Rp3343
(I1
(I6
I1
tp3344
g79
I00
S'\xe8U\x18\x00\x00\x00\x00\x00}\x97\x17\x00\x00\x00\x00\x00\x8a\t\x0c\x00\x00\x00\x00\x00^\x80A\x00\x00\x00\x00\x00L\x1c!\x00\x00\x00\x00\x00)\xc6\x1c\x00\x00\x00\x00\x00'
p3345
tp3346
ba(lp3347
g34
(g35
(dp3348
g37
g38
(g39
(I0
tp3349
g41
tp3350
Rp3351
(I1
(I6
tp3352
g48
I00
(lp3353
g3321
ag3322
ag3323
ag3324
ag3325
ag3326
atp3354
bsg54
Nstp3355
Rp3356
a(dp3357
g95
(dp3358
g97
g3314
sg98
(lp3359
(dp3360
g101
g102
(I0
I6
I1
tp3361
Rp3362
sg105
g3343
sasstp3363
bsbsS'capacity'
p3364
g119
sS'regions'
p3365
(lp3366
g171
asS'SEIR_parameters'
p3367
g19
(g20
g21
Ntp3368
Rp3369
(dp3370
g25
g26
sg27
g28
sg29
g19
(g30
g21
Ntp3371
Rp3372
((lp3373
g34
(g35
(dp3374
g37
g38
(g39
(I0
tp3375
g41
tp3376
Rp3377
(I1
(I9
tp3378
g48
I00
(lp3379
S'mu'
p3380
aS'sigma'
p3381
aS'p_ss'
p3382
aS'p_H'
p3383
aS'p_ICU'
p3384
aS'lambda_HR'
p3385
aS'lambda_HD'
p3386
aS'lambda_ICUR'
p3387
aS'lambda_ICUD'
p3388
atp3389
bsg54
Nstp3390
Rp3391
ag34
(g35
(dp3392
g37
g38
(g39
(I0
tp3393
g41
tp3394
Rp3395
(I1
(I6
tp3396
g48
I00
(lp3397
Vage_group_1
p3398
aVage_group_2
p3399
aVage_group_3
p3400
aVage_group_4
p3401
aVage_group_5
p3402
aVage_group_6
p3403
atp3404
bsg54
Nstp3405
Rp3406
a(lp3407
g38
(g39
(I0
tp3408
g41
tp3409
Rp3410
(I1
(I9
I6
tp3411
g111
I00
S'y\r\xe55\x94\xd7\xd0?y\r\xe55\x94\xd7\xd0?y\r\xe55\x94\xd7\xd0?y\r\xe55\x94\xd7\xd0?y\r\xe55\x94\xd7\xd0?y\r\xe55\x94\xd7\xd0?\xc1\x14\xf9\xac\x1bL\xd1?\xc1\x14\xf9\xac\x1bL\xd1?\xc1\x14\xf9\xac\x1bL\xd1?\xc1\x14\xf9\xac\x1bL\xd1?\xc1\x14\xf9\xac\x1bL\xd1?\xc1\x14\xf9\xac\x1bL\xd1?\x00\x00\x00\x00\x00\x00\x00\x00\x00\x00\x00\x00\x00\x00\x00\x00{\x14\xaeG\xe1z\xb4?{\x14\xaeG\xe1z\xb4?{\x14\xaeG\xe1z\xb4?{\x14\xaeG\xe1z\xc4?\x00\x00\x00\x00\x00\x00\x00\x00\x00\x00\x00\x00\x00\x00\x00\x00-C\x1c\xeb\xe26\xaa?-C\x1c\xeb\xe26\xaa?-C\x1c\xeb\xe26\xaa?\xfc\xa9\xf1\xd2Mb\xc0?\x00\x00\x00\x00\x00\x00\x00\x00\x00\x00\x00\x00\x00\x00\x00\x00\x92\xcb\x7fH\xbf}\x9d?\x92\xcb\x7fH\xbf}\x9d?\x92\xcb\x7fH\xbf}\x9d?\xfc\xa9\xf1\xd2Mb\xa0?\x00\x00\x00\x00\x00\x00\x00\x00\x00\x00\x00\x00\x00\x00\x00\x00;\xdfO\x8d\x97n\xb2?;\xdfO\x8d\x97n\xb2?;\xdfO\x8d\x97n\xb2?\xbaI\x0c\x02+\x87\x96?\x00\x00\x00\x00\x00\x00\x00\x00\x00\x00\x00\x00\x00\x00\x00\x00\x15\x8cJ\xea\x044q?\x15\x8cJ\xea\x044q?\x15\x8cJ\xea\x044q?y\xe9&1\x08\xac\x8c?\x00\x00\x00\x00\x00\x00\x00\x00\x00\x00\x00\x00\x00\x00\x00\x00\x9a\x99\x99\x99\x99\x99\xa9?\x9a\x99\x99\x99\x99\x99\xa9?\x9a\x99\x99\x99\x99\x99\xa9?;\xdfO\x8d\x97n\xa2?\x00\x00\x00\x00\x00\x00\x00\x00\x00\x00\x00\x00\x00\x00\x00\x00\xac\xad\xd8_vO~?\xac\xad\xd8_vO~?\xac\xad\xd8_vO~?\x19\x04V\x0e-\xb2\x9d?'
p3412
tp3413
ba(lp3414
g34
(g35
(dp3415
g37
g38
(g39
(I0
tp3416
g41
tp3417
Rp3418
(I1
(I9
tp3419
g48
I00
(lp3420
g3380
ag3381
ag3382
ag3383
ag3384
ag3385
ag3386
ag3387
ag3388
atp3421
bsg54
Nstp3422
Rp3423
a(dp3424
g95
(dp3425
g97
g3373
sg98
(lp3426
(dp3427
g101
g102
(I0
I9
I1
tp3428
Rp3429
sg105
g3410
sasstp3430
bsbsS'economic_values'
p3431
(dp3432
(g171
g5
I4
tp3433
g108
(g111
S'\x00\x00\x00\x00\x00\x00\x00\x00'
p3434
tp3435
Rp3436
s(g171
g6
I2
tp3437
g108
(g111
S'\x00\x00\x00\x00\x00\x00\x00\x00'
p3438
tp3439
Rp3440
s(g171
g7
I0
tp3441
g108
(g111
S'\x00\x00\x00\x00\x00\x00\x00\x00'
p3442
tp3443
Rp3444
s(g171
g6
I3
tp3445
g108
(g111
S'\x00\x00\x00\x00\x00\x00\x00\x00'
p3446
tp3447
Rp3448
s(g171
g7
I2
tp3449
g108
(g111
S'\x00\x00\x00\x00\x00\x00\x00\x00'
p3450
tp3451
Rp3452
s(g171
g5
I1
tp3453
g108
(g111
S'\x00\x00\x00\x00\x00\x00\x00\x00'
p3454
tp3455
Rp3456
s(g171
g9
I4
tp3457
g108
(g111
S'P\xb6\xb4\xb9opW@'
p3458
tp3459
Rp3460
s(g171
g5
I0
tp3461
g108
(g111
S'\x00\x00\x00\x00\x00\x00\x00\x00'
p3462
tp3463
Rp3464
s(g171
g9
I3
tp3465
g108
(g111
S'P\xb6\xb4\xb9opW@'
p3466
tp3467
Rp3468
s(g171
g5
I3
tp3469
g108
(g111
S'\x00\x00\x00\x00\x00\x00\x00\x00'
p3470
tp3471
Rp3472
s(g171
g9
I2
tp3473
g108
(g111
S'P\xb6\xb4\xb9opW@'
p3474
tp3475
Rp3476
s(g171
g4
I4
tp3477
g108
(g111
S'@\xe4\xe1\xa5\xa4`2@'
p3478
tp3479
Rp3480
s(g171
g6
I4
tp3481
g108
(g111
S'\x00\x00\x00\x00\x00\x00\x00\x00'
p3482
tp3483
Rp3484
s(g171
g5
I2
tp3485
g108
(g111
S'\x00\x00\x00\x00\x00\x00\x00\x00'
p3486
tp3487
Rp3488
s(g171
g9
I1
tp3489
g108
(g111
S'\xbc\x88G\xcbS\x94Q@'
p3490
tp3491
Rp3492
s(g171
g9
I0
tp3493
g108
(g111
S'P\xb6\xb4\xb9opG@'
p3494
tp3495
Rp3496
s(g171
g4
I2
tp3497
g108
(g111
S'@\xe4\xe1\xa5\xa4`2@'
p3498
tp3499
Rp3500
s(g171
g4
I3
tp3501
g108
(g111
S'@\xe4\xe1\xa5\xa4`2@'
p3502
tp3503
Rp3504
s(g171
g4
I0
tp3505
g108
(g111
S'@\xe4\xe1\xa5\xa4`"@'
p3506
tp3507
Rp3508
s(g171
g8
I4
tp3509
g108
(g111
S'\x06\x98z\xdf\xc3\xbbV@'
p3510
tp3511
Rp3512
s(g171
g4
I1
tp3513
g108
(g111
S'`\xd6\xd2\xf8\xf6\x90+@'
p3514
tp3515
Rp3516
s(g171
g8
I0
tp3517
g108
(g111
S'\x06\x98z\xdf\xc3\xbbF@'
p3518
tp3519
Rp3520
s(g171
g8
I1
tp3521
g108
(g111
S'\x04\xf2\x9b\xe7\xd2\x0cQ@'
p3522
tp3523
Rp3524
s(g171
g8
I2
tp3525
g108
(g111
S'\x06\x98z\xdf\xc3\xbbV@'
p3526
tp3527
Rp3528
s(g171
g8
I3
tp3529
g108
(g111
S'\x06\x98z\xdf\xc3\xbbV@'
p3530
tp3531
Rp3532
s(g171
g6
I0
tp3533
g108
(g111
S'\x00\x00\x00\x00\x00\x00\x00\x00'
p3534
tp3535
Rp3536
s(g171
g7
I1
tp3537
g108
(g111
S'\x00\x00\x00\x00\x00\x00\x00\x00'
p3538
tp3539
Rp3540
s(g171
g6
I1
tp3541
g108
(g111
S'\x00\x00\x00\x00\x00\x00\x00\x00'
p3542
tp3543
Rp3544
ss.