(dp0
S'activities'
p1
(lp2
S'home'
p3
aS'work'
p4
aS'school'
p5
aS'transport'
p6
aS'leisure'
p7
aS'other'
p8
asS'age_groups'
p9
c__builtin__
set
p10
((lp11
S'age_group_3'
p12
aS'age_group_2'
p13
aS'age_group_1'
p14
aS'age_group_6'
p15
aS'age_group_5'
p16
aS'age_group_4'
p17
atp18
Rp19
sS'testing'
p20
(dp21
S'Ile-de-France'
p22
(dp23
S'antibodies'
p24
I3000
sS'molecular'
p25
I3000
sssS'social_contact_matrices'
p26
(dp27
g5
ccopy_reg
_reconstructor
p28
(cpandas.core.frame
DataFrame
p29
c__builtin__
object
p30
Ntp31
Rp32
(dp33
S'_metadata'
p34
(lp35
sS'_typ'
p36
S'dataframe'
p37
sS'_data'
p38
g28
(cpandas.core.internals.managers
BlockManager
p39
g30
Ntp40
Rp41
((lp42
cpandas.core.indexes.base
_new_Index
p43
(cpandas.core.indexes.base
Index
p44
(dp45
S'data'
p46
cnumpy.core.multiarray
_reconstruct
p47
(cnumpy
ndarray
p48
(I0
tp49
S'b'
p50
tp51
Rp52
(I1
(I6
tp53
cnumpy
dtype
p54
(S'O8'
p55
I0
I1
tp56
Rp57
(I3
S'|'
p58
NNNI-1
I-1
I63
tp59
bI00
(lp60
S'age_group_1'
p61
aS'age_group_2'
p62
aS'age_group_3'
p63
aS'age_group_4'
p64
aS'age_group_5'
p65
aS'age_group_6'
p66
atp67
bsS'name'
p68
Nstp69
Rp70
ag43
(g44
(dp71
g46
g47
(g48
(I0
tp72
g50
tp73
Rp74
(I1
(I6
tp75
g57
I00
(lp76
Vage_group_1
p77
aVage_group_2
p78
aVage_group_3
p79
aVage_group_4
p80
aVage_group_5
p81
aVage_group_6
p82
atp83
bsg68
Nstp84
Rp85
a(lp86
g47
(g48
(I0
tp87
g50
tp88
Rp89
(I1
(I6
I6
tp90
g54
(S'f8'
p91
I0
I1
tp92
Rp93
(I3
S'<'
p94
NNNI-1
I-1
I0
tp95
bI00
S'\x9c\x0b\xac1O\x99\xf5?\xc7\xf9![a\xfb\xc2?^\xfb\xfc\x18\xb5E\x9e?\x17\x8fh\x1a\x88n\xc0?9\xa9$\x12=\x9d\x98?\x00\x00\x00\x00\x00\x00\x00\x00a\xf7\xc7\xec)o\xc2?\xec<\x9d%B\x0e\x10@\xce4#O\xa7\x8a\xd5?\x89\xa9j\x9b\xd81\xc2?\xf7\xa0%\xcf\xc7]\x9f?\x9fT1U(oD?%\xee\x88p2\xae\x8e?!a\xc6\xbe\x11{\xc6?|\x13]\x1e\x12\x1e\xf1?Z\na\x0e\xf3\xd6\xa3?\x9e\xdb\x856\xb7\x98}?\x9fT1U(oD?\xb0^\xa8Bm\xbf\xd5?(\x1c\xc6\x17\xeb\xcb\xd8?\x98&\xa6\x0c\xa9\xe8\xc9?\x95Uy\xd0\xeb\x86\xc3?K:\xa3\xe6H\xe6\xb2?\xcbc\x95i\xa8\xd1\xa0?\t\xa9+\n\x1e/\xa3??#g\xc8E,\xa9?_<aE\xa6\xc2\x96?\xc1\x16\x02KMB\xa6?\xcf\xa1\xf0\x05\xec\n\xa9?\'\xc0XK\x95,\x98?\x00\x00\x00\x00\x00\x00\x00\x00\x19>{H\xd2\xb6K?\x9d\xf3\xf4"p\x8eZ?p\x91!\x0e\xdd\xbc\x90?\x0e\x1d\xd5l1m\x94?\x8bE\xf1\xa3\xab\xbc\xb0?'
p96
tp97
ba(lp98
g43
(g44
(dp99
g46
g47
(g48
(I0
tp100
g50
tp101
Rp102
(I1
(I6
tp103
g57
I00
(lp104
g61
ag62
ag63
ag64
ag65
ag66
atp105
bsg68
Nstp106
Rp107
a(dp108
S'0.14.1'
p109
(dp110
S'axes'
p111
g42
sS'blocks'
p112
(lp113
(dp114
S'mgr_locs'
p115
c__builtin__
slice
p116
(I0
I6
I1
tp117
Rp118
sS'values'
p119
g89
sasstp120
bsbsg4
g28
(g29
g30
Ntp121
Rp122
(dp123
g34
g35
sg36
g37
sg38
g28
(g39
g30
Ntp124
Rp125
((lp126
g43
(g44
(dp127
g46
g47
(g48
(I0
tp128
g50
tp129
Rp130
(I1
(I6
tp131
g57
I00
(lp132
S'age_group_1'
p133
aS'age_group_2'
p134
aS'age_group_3'
p135
aS'age_group_4'
p136
aS'age_group_5'
p137
aS'age_group_6'
p138
atp139
bsg68
Nstp140
Rp141
ag43
(g44
(dp142
g46
g47
(g48
(I0
tp143
g50
tp144
Rp145
(I1
(I6
tp146
g57
I00
(lp147
Vage_group_1
p148
aVage_group_2
p149
aVage_group_3
p150
aVage_group_4
p151
aVage_group_5
p152
aVage_group_6
p153
atp154
bsg68
Nstp155
Rp156
a(lp157
g47
(g48
(I0
tp158
g50
tp159
Rp160
(I1
(I6
I6
tp161
g93
I00
S'\xfc[\x16\xd46\\\xe3?JTQ\xb7\x11\x91\xeb?\xb0@\xe7zJ\x1a\xe5?\x93\x1c\xfc9\x0f\xfb\xe0?\x87C4\x8f\x03\xfc\xe1?\xc4r\xf0\xf1\xae\x1f\xd7?>z\nSp\xc5\xea?x\xc4\xdcF\xe7\xea\xf3?\xe4\xd5\xffZ\xda\x18\xf1?`\xc4U\x9d\x89\xc4\xed?^b\xd1\x19\xbd\x1f\xed?\x05\xd4\x0b\xa6\xb0.\xe3?\xdd\x82\xbeW!c\xd5?y\xc9\xb3V\xaa\xd7\xe1?\xab\x92\xc3\x85\x0e\xfa\xe2?\x83\x99\xdaE\xdd\x06\xe0?k\x9a0\xc7\x165\xdc?\xd0\xd2\xef\xa4\x802\xd2?L<\xb9\tky\xf6?\xd8\xd6Yq\xcdH\x04@t\xf3\t\xb0\xfa\xed\x04@\x07w\xeb%[\x97\t@\xec\xd5\xa9\xed\x84\xbd\x04@\xe9_7\x11\xa2i\xf1?\x83\x84\x194\xa3\x08\xec?\x97p\xff\xc9\x93_\xf7?&`\xbdO*\xb1\xf5?\x1a\xb5\xc5\xacLm\xf8?\xe4\x9b\xf1\xa6\xf0\xb2\xfa?+\xd7\xc7\x82C\x11\xe9?\x9e\xc8\x96\\\xfat\xde?Y?\xf1\xf4.\x04\xea?2\xcd\x9av6\xa6\xe7?o\x19L\xd0\x1aT\xe1?R\x1f \x16l.\xe5?}\xaeo\x8d\xf3\x8a\xd7?'
p162
tp163
ba(lp164
g43
(g44
(dp165
g46
g47
(g48
(I0
tp166
g50
tp167
Rp168
(I1
(I6
tp169
g57
I00
(lp170
g133
ag134
ag135
ag136
ag137
ag138
atp171
bsg68
Nstp172
Rp173
a(dp174
g109
(dp175
g111
g126
sg112
(lp176
(dp177
g115
g116
(I0
I6
I1
tp178
Rp179
sg119
g160
sasstp180
bsbsg7
g28
(g29
g30
Ntp181
Rp182
(dp183
g34
g35
sg36
g37
sg38
g28
(g39
g30
Ntp184
Rp185
((lp186
g43
(g44
(dp187
g46
g47
(g48
(I0
tp188
g50
tp189
Rp190
(I1
(I6
tp191
g57
I00
(lp192
S'age_group_1'
p193
aS'age_group_2'
p194
aS'age_group_3'
p195
aS'age_group_4'
p196
aS'age_group_5'
p197
aS'age_group_6'
p198
atp199
bsg68
Nstp200
Rp201
ag43
(g44
(dp202
g46
g47
(g48
(I0
tp203
g50
tp204
Rp205
(I1
(I6
tp206
g57
I00
(lp207
Vage_group_1
p208
aVage_group_2
p209
aVage_group_3
p210
aVage_group_4
p211
aVage_group_5
p212
aVage_group_6
p213
atp214
bsg68
Nstp215
Rp216
a(lp217
g47
(g48
(I0
tp218
g50
tp219
Rp220
(I1
(I6
I6
tp221
g93
I00
S'\xab\x9cD\x00Y\x96\xdf?\xee6\xea\x828r\xc4?j\x10\x19\xc6J\xb1\xbd?\xe4=`\x7f\xd4\xb1\xcb?[|\xa3\xb4ao\xc8?\xcd\x8f\xd0\xf3\xdf\xe3\xb7?\xf1\x16M20\xdb\xc3?*\x11\x15\xef\xb8\x86\xe1?\xddS\x02\xa8\x9bn\xd1?q7\x186\xfc\xda\xc8?e\xb4\xf4\xe1R\xdc\xba?\xc7\xdbH\xc6Tv\xbb?\xfa\x9f8\xd6\xc7\x17\xae?\xdcl\xee\xb5(1\xc2?\xd8\x11c\x96\xe1\x11\xf1?\x11\xb0T\x03\n\x8c\xd0?\xd5\x8a\x0f\x14\xc4\r\xc5?2(\x08Q\x04\x15\xb0?Q\xf2\xf9\xa7\xc3S\xe2?9x7\xea\xe0\xef\xe0?dH\xf2\xcc\xe4\x9b\xf5?\xeb\xb1\xa6[\xa1~\xfd?|\x08\x191R|\xf3?\xc0i\x1c\xce\x98\xc9\xe9?\xe3[O\x81`\x0b\xd3?~I\xbc\xe2\x91\x8e\xc5?\xd5\xf3\xfc!\xd70\xe0?\x98PN\xee\x01\xf3\xe6?f\x14N\x8edP\xeb?\xee-\x92v\xb2!\xe2?P\xff\n\x1acw\xbf?\xfb\x85\xea~|\x9f\xc2?\xc4\xaa\x9d\xcd~\xe6\xc4?!\tL\xd5\xb6\xa9\xd9?r5\xa7\x81:\xa4\xde?\xd5a\xe7In\xe0\xe7?'
p222
tp223
ba(lp224
g43
(g44
(dp225
g46
g47
(g48
(I0
tp226
g50
tp227
Rp228
(I1
(I6
tp229
g57
I00
(lp230
g193
ag194
ag195
ag196
ag197
ag198
atp231
bsg68
Nstp232
Rp233
a(dp234
g109
(dp235
g111
g186
sg112
(lp236
(dp237
g115
g116
(I0
I6
I1
tp238
Rp239
sg119
g220
sasstp240
bsbsg8
g28
(g29
g30
Ntp241
Rp242
(dp243
g34
g35
sg36
g37
sg38
g28
(g39
g30
Ntp244
Rp245
((lp246
g43
(g44
(dp247
g46
g47
(g48
(I0
tp248
g50
tp249
Rp250
(I1
(I6
tp251
g57
I00
(lp252
S'age_group_1'
p253
aS'age_group_2'
p254
aS'age_group_3'
p255
aS'age_group_4'
p256
aS'age_group_5'
p257
aS'age_group_6'
p258
atp259
bsg68
Nstp260
Rp261
ag43
(g44
(dp262
g46
g47
(g48
(I0
tp263
g50
tp264
Rp265
(I1
(I6
tp266
g57
I00
(lp267
Vage_group_1
p268
aVage_group_2
p269
aVage_group_3
p270
aVage_group_4
p271
aVage_group_5
p272
aVage_group_6
p273
atp274
bsg68
Nstp275
Rp276
a(lp277
g47
(g48
(I0
tp278
g50
tp279
Rp280
(I1
(I6
I6
tp281
g93
I00
S'\xd5Yk\xee\x89\xd5\xcb?\xa9a~H\xa4\x82\xb1?\x0c\x0f\x8b\xd9\x1c\x8a\x90?\x00\ta\x13\xcf\x1f\xae?\x08f\x13\xe0\xa5~\xa3?P:\xa9\x8fV\x03\x9c?k\x87\xcb\xc1K\x01\xb1?\\\x19 \x11J&\xe4?mw,\x81\xdfU\xce?~\xab\xd4\xf0Ju\xb5?6\xeb\x0c\x13\x08\xfd\xb1?=\xc9\xf8\x12\x11\x12\xa3?\x17\xba^\x8f3\xc3\x80?\x9f\x19<\xbcn\xa8\xbf?:k{\x196x\xd2?$68\x93\xa5\n\xb4?\xf3\xb0\x9f\xcc\xab\x1a\x9f?\x87\x87}XD[\x94?\r5-f]\xef\xc3?\xe6\r\x1dz\x80>\xcd?m?+*,,\xda?\x89\x1bWxA\xf4\xd9?3\n\x92\x06B!\xd7?\xf0\\\ny\x1dT\xd3?q\xf1\xd0wPc\xae?;J@\x19\x81\xdf\xbc?\x86\x9cb\x05u\xeb\xb7?{7\xae\xb7\xc6=\xcb?N\xd3l\xac\x86\xe7\xdb?\x9e\'\xb5\x8e\x0c\xb7\xcb?\xef\xc6\x88\x90\xc8r\xa2?\xcc\x97h\xd8\\\xdd\xa9?\x10\xe9\xa9\x90\x96t\xaa?c&\x15\xce7<\xc3?\x04\xfe#""k\xc7?lx\xf3y\x8d\x06\xdb?'
p282
tp283
ba(lp284
g43
(g44
(dp285
g46
g47
(g48
(I0
tp286
g50
tp287
Rp288
(I1
(I6
tp289
g57
I00
(lp290
g253
ag254
ag255
ag256
ag257
ag258
atp291
bsg68
Nstp292
Rp293
a(dp294
g109
(dp295
g111
g246
sg112
(lp296
(dp297
g115
g116
(I0
I6
I1
tp298
Rp299
sg119
g280
sasstp300
bsbsg3
g28
(g29
g30
Ntp301
Rp302
(dp303
g34
g35
sg36
g37
sg38
g28
(g39
g30
Ntp304
Rp305
((lp306
g43
(g44
(dp307
g46
g47
(g48
(I0
tp308
g50
tp309
Rp310
(I1
(I6
tp311
g57
I00
(lp312
S'age_group_1'
p313
aS'age_group_2'
p314
aS'age_group_3'
p315
aS'age_group_4'
p316
aS'age_group_5'
p317
aS'age_group_6'
p318
atp319
bsg68
Nstp320
Rp321
ag43
(g44
(dp322
g46
g47
(g48
(I0
tp323
g50
tp324
Rp325
(I1
(I6
tp326
g57
I00
(lp327
Vage_group_1
p328
aVage_group_2
p329
aVage_group_3
p330
aVage_group_4
p331
aVage_group_5
p332
aVage_group_6
p333
atp334
bsg68
Nstp335
Rp336
a(lp337
g47
(g48
(I0
tp338
g50
tp339
Rp340
(I1
(I6
I6
tp341
g93
I00
S'\xf0\x0fU\xce\xe2/\xeb?vN^\x14\xfb\xb7\xdc?f\x08\xd9\x01\xe9+\xc3?\x91\x16\xa7\xfd\xfb\xb7\xe2?o1v;\xb2H\xcf?\xeb\xbd\xfd\xdf\x83\xb3\xc3?,\xc7\x8e9\xd7\xe3\xdb?\xd8<\xd1P\xfeR\xf1?\'\xd9\x0f\xa5h\xd2\xdd?d\x8d\xf62\xb34\xdf?\xafw&^\xbbm\xcc?;\xa7\xad@5\xa6\xc3?0\xba\xa9o\x15n\xb3?R\xa4,\xaa<\x1f\xcf?\xb5\\M\xfa\xa3l\xea?\x91\x0c\x90\x9d[\xdc\xca??\xa4\xe6h\x1e\x16\xc6?\xd2\x072\x9d\xc2\xd0\xab?x$\xc4\xecH\xc6\xf8? \xfc\x900\xadC\xf5?7)\xeek\xf5\x89\xf1?\xe7\x9a\x98\xdb\x06\xab\xf2?\xfa\xd9X5\xaa\xb1\xeb?\xc3\xdf\xd1\xaa\xf0\xcb\xe1?\xce\xbb*4\xe4a\xd8?%\x085\xf5\xb7\xd0\xd6?6\x94N\x14"\xfc\xe0?\x99\x18\xe0j\xefN\xe0?3\xf1\xce\xf7oP\xee?\xc8\xda\xd7\\_\x8b\xe1?\xe7\xbfb\xe1\xf3\xf2\xc9?\xff\xec\xf5\xf9G\xa6\xca?\xd6\r\x0fd\x16\x13\xc2?{\xeb\xc8\xde\xef\xb5\xd1?\x83\x8c\x93\r0\xa6\xdd?\x90x\xe3\x83*\xf1\xec?'
p342
tp343
ba(lp344
g43
(g44
(dp345
g46
g47
(g48
(I0
tp346
g50
tp347
Rp348
(I1
(I6
tp349
g57
I00
(lp350
g313
ag314
ag315
ag316
ag317
ag318
atp351
bsg68
Nstp352
Rp353
a(dp354
g109
(dp355
g111
g306
sg112
(lp356
(dp357
g115
g116
(I0
I6
I1
tp358
Rp359
sg119
g340
sasstp360
bsbsg6
g28
(g29
g30
Ntp361
Rp362
(dp363
g34
g35
sg36
g37
sg38
g28
(g39
g30
Ntp364
Rp365
((lp366
g43
(g44
(dp367
g46
g47
(g48
(I0
tp368
g50
tp369
Rp370
(I1
(I6
tp371
g57
I00
(lp372
S'age_group_1'
p373
aS'age_group_2'
p374
aS'age_group_3'
p375
aS'age_group_4'
p376
aS'age_group_5'
p377
aS'age_group_6'
p378
atp379
bsg68
Nstp380
Rp381
ag43
(g44
(dp382
g46
g47
(g48
(I0
tp383
g50
tp384
Rp385
(I1
(I6
tp386
g57
I00
(lp387
Vage_group_1
p388
aVage_group_2
p389
aVage_group_3
p390
aVage_group_4
p391
aVage_group_5
p392
aVage_group_6
p393
atp394
bsg68
Nstp395
Rp396
a(lp397
g47
(g48
(I0
tp398
g50
tp399
Rp400
(I1
(I6
I6
tp401
g93
I00
S'\x1aN\x1e\xf9\xba\x9a\xaa?\x05\xd8\x9b\xfa\x90\x0f\x91?\x06\xa1\xd5\x08*hv?\xe5\x90T9)t\x82?(uh;\xae\x90}?\xa2k\xf3!8\x8dE?`o\xdf~\x8a\x91\x90?\xb8\x89\xea\x04h\x08\xd4?\xe5\x1bD\xb9\xc4\xfe\x9c?\xa0\xfa\x7f\xf9\x1c^\x8f?\x7f l\xd19\xe8\x8f?R\xea\x8d\x0f\xe93u?\xd8\xc45P\x81\xb5f?d\x8b\xf1\xb9^B\x8e?\xdb\xc9\x1f\x9d\x1f\x80\x81?\x9bh\x97\x1f\xdf\x1e\x8c?\x00\x00\x00\x00\x00\x00\x00\x00<.\x88\xdf\x0b8\x90?\x8d%\xbb\xf6\x84l\x98?<\x10=y\xe5_\xa5?\xf9\xe9\x08\xc1\x8b\\\xb2?\xd4\xf3\xb9\xd2*\x06\xb8?.Z\xd6\x8c#\xbb\xaa?\x1d\xb3\x85\xaa\xadq\x9a?{!x\xaf\xf2\n\x87?gb\x01\xa5a\x9b\x99?\x00\x00\x00\x00\x00\x00\x00\x00\x81\xc9\xa5\x19\x86{\x9f??\xb2,4\xcf\xce\x94?ur\n_\xc08\x98?\x186C\xa4\xe1bL?\xa1r\x91|\xab\xc1|?\xd5bu\x15\x05\x14\xa5?D\xadg\xe2\xfbP\x8a?\x93@\xb1\x95yw\x94?\xac6\xd5\x9c\xab\xac\xaa?'
p402
tp403
ba(lp404
g43
(g44
(dp405
g46
g47
(g48
(I0
tp406
g50
tp407
Rp408
(I1
(I6
tp409
g57
I00
(lp410
g373
ag374
ag375
ag376
ag377
ag378
atp411
bsg68
Nstp412
Rp413
a(dp414
g109
(dp415
g111
g366
sg112
(lp416
(dp417
g115
g116
(I0
I6
I1
tp418
Rp419
sg119
g400
sasstp420
bsbssS'death_cost'
p421
g28
(g29
g30
Ntp422
Rp423
(dp424
g34
g35
sg36
g37
sg38
g28
(g39
g30
Ntp425
Rp426
((lp427
g43
(g44
(dp428
g46
g47
(g48
(I0
tp429
g50
tp430
Rp431
(I1
(I1
tp432
g57
I00
(lp433
S'death_cost'
p434
atp435
bsg68
Nstp436
Rp437
ag43
(g44
(dp438
g46
g47
(g48
(I0
tp439
g50
tp440
Rp441
(I1
(I6
tp442
g57
I00
(lp443
Vage_group_1
p444
aVage_group_2
p445
aVage_group_3
p446
aVage_group_4
p447
aVage_group_5
p448
aVage_group_6
p449
atp450
bsg68
Nstp451
Rp452
a(lp453
g47
(g48
(I0
tp454
g50
tp455
Rp456
(I1
(I1
I6
tp457
g54
(S'i8'
p458
I0
I1
tp459
Rp460
(I3
S'<'
p461
NNNI-1
I-1
I0
tp462
bI00
S'@B\x0f\x00\x00\x00\x00\x00@B\x0f\x00\x00\x00\x00\x00@B\x0f\x00\x00\x00\x00\x00@B\x0f\x00\x00\x00\x00\x00@B\x0f\x00\x00\x00\x00\x00@B\x0f\x00\x00\x00\x00\x00'
p463
tp464
ba(lp465
g43
(g44
(dp466
g46
g47
(g48
(I0
tp467
g50
tp468
Rp469
(I1
(I1
tp470
g57
I00
(lp471
g434
atp472
bsg68
Nstp473
Rp474
a(dp475
g109
(dp476
g111
g427
sg112
(lp477
(dp478
g115
g116
(I0
I1
I1
tp479
Rp480
sg119
g456
sasstp481
bsbsS'beta'
p482
cnumpy.core.multiarray
scalar
p483
(g93
S'\x16\xd3Z\xf8\xb9\x8e\xaa?'
p484
tp485
Rp486
sS'hospital_icu'
p487
g28
(g29
g30
Ntp488
Rp489
(dp490
g34
g35
sg36
g37
sg38
g28
(g39
g30
Ntp491
Rp492
((lp493
g43
(g44
(dp494
g46
g47
(g48
(I0
tp495
g50
tp496
Rp497
(I1
(I2
tp498
g57
I00
(lp499
S'ICU'
p500
aS'Hospital'
p501
atp502
bsg68
Nstp503
Rp504
ag43
(g44
(dp505
g46
g47
(g48
(I0
tp506
g50
tp507
Rp508
(I1
(I1
tp509
g57
I00
(lp510
VIle-de-France
p511
atp512
bsg68
Nstp513
Rp514
a(lp515
g47
(g48
(I0
tp516
g50
tp517
Rp518
(I1
(I2
I1
tp519
g460
I00
S'\xc4\t\x00\x00\x00\x00\x00\x00\x00-1\x01\x00\x00\x00\x00'
p520
tp521
ba(lp522
g43
(g44
(dp523
g46
g47
(g48
(I0
tp524
g50
tp525
Rp526
(I1
(I2
tp527
g57
I00
(lp528
g500
ag501
atp529
bsg68
Nstp530
Rp531
a(dp532
g109
(dp533
g111
g493
sg112
(lp534
(dp535
g115
g116
(I0
I2
I1
tp536
Rp537
sg119
g518
sasstp538
bsbsS'all_contacts'
p539
(dp540
(S'Ile-de-France'
p541
g17
I3
g541
g17
I1
tp542
g483
(g93
S'\x1f\x86\x14i\xb8\xb9\x07@'
p543
tp544
Rp545
s(g541
g12
I4
g541
g17
I3
tp546
g483
(g93
S'\xed{Y%\x10w\x13@'
p547
tp548
Rp549
s(g541
g15
I0
g541
g14
I3
tp550
g483
(g93
S'\xeb\xbd\xfd\xdf\x83\xb3\xc3?'
p551
tp552
Rp553
s(g541
g14
I3
g541
g16
I1
tp554
g483
(g93
S'\xfc\xca#zK\x96\xeb?'
p555
tp556
Rp557
s(g541
g13
I3
g541
g16
I3
tp558
g483
(g93
S'\x17\xdc\x8cQ\xbbA\x00@'
p559
tp560
Rp561
s(g541
g14
I1
g541
g17
I0
tp562
g483
(g93
S'x$\xc4\xecH\xc6\xf8?'
p563
tp564
Rp565
s(g541
g13
I0
g541
g12
I3
tp566
g483
(g93
S'R\xa4,\xaa<\x1f\xcf?'
p567
tp568
Rp569
s(g541
g17
I1
g541
g17
I4
tp570
g483
(g93
S'\x1f\x86\x14i\xb8\xb9\x07@'
p571
tp572
Rp573
s(g541
g14
I3
g541
g13
I3
tp574
g483
(g93
S'>\x99\xb0\xc0\x96\xb1\xf8?'
p575
tp576
Rp577
s(g541
g16
I1
g541
g17
I4
tp578
g483
(g93
S'\xfa\xe7y\x92\xd5\x17\x02@'
p579
tp580
Rp581
s(g541
g14
I2
g541
g17
I3
tp582
g483
(g93
S'\x832\x81\xad\xa0\x88\n@'
p583
tp584
Rp585
s(g541
g14
I0
g541
g13
I2
tp586
g483
(g93
S',\xc7\x8e9\xd7\xe3\xdb?'
p587
tp588
Rp589
s(g541
g17
I1
g541
g16
I0
tp590
g483
(g93
S'\x99\x18\xe0j\xefN\xe0?'
p591
tp592
Rp593
s(g541
g15
I2
g541
g15
I1
tp594
g483
(g93
S'\xa6X\x1d25<\xf8?'
p595
tp596
Rp597
s(g541
g16
I3
g541
g16
I1
tp598
g483
(g93
S'\xfe$\xf8M\xa5s\xfd?'
p599
tp600
Rp601
s(g541
g12
I0
g541
g16
I2
tp602
g483
(g93
S'6\x94N\x14"\xfc\xe0?'
p603
tp604
Rp605
s(g541
g14
I4
g541
g16
I3
tp606
g483
(g93
S'\x02\xee\xd0\xceR\xbf\xf7?'
p607
tp608
Rp609
s(g541
g17
I4
g541
g12
I1
tp610
g483
(g93
S']\x8fvy20\xe0?'
p611
tp612
Rp613
s(g541
g15
I1
g541
g15
I1
tp614
g483
(g93
S'\xa6X\x1d25<\xf8?'
p615
tp616
Rp617
s(g541
g16
I1
g541
g17
I3
tp618
g483
(g93
S'\xfa\xe7y\x92\xd5\x17\x02@'
p619
tp620
Rp621
s(g541
g16
I4
g541
g16
I2
tp622
g483
(g93
S'*\xa6\xec\x9f]{\x05@'
p623
tp624
Rp625
s(g541
g17
I1
g541
g12
I1
tp626
g483
(g93
S']\x8fvy20\xe0?'
p627
tp628
Rp629
s(g541
g14
I1
g541
g14
I1
tp630
g483
(g93
S'~\x1a\xf8\xaa\x8f>\x01@'
p631
tp632
Rp633
s(g541
g17
I3
g541
g13
I2
tp634
g483
(g93
S'\xaf\xda\xc8\xe8h4\xf9?'
p635
tp636
Rp637
s(g541
g12
I4
g541
g14
I2
tp638
g483
(g93
S'\xe7\x157\xb8B\x04\xeb?'
p639
tp640
Rp641
s(g541
g16
I4
g541
g13
I4
tp642
g483
(g93
S'\xe3\x08\xdd:s\xa8\xf5?'
p643
tp644
Rp645
s(g541
g16
I0
g541
g16
I4
tp646
g483
(g93
S'3\xf1\xce\xf7oP\xee?'
p647
tp648
Rp649
s(g541
g13
I4
g541
g17
I3
tp650
g483
(g93
S'\x12\xf2\xcb\x91\xc8\xb0\x12@'
p651
tp652
Rp653
s(g541
g13
I1
g541
g13
I3
tp654
g483
(g93
S'\x18s\xe1\xb8\xdd\xf6\x11@'
p655
tp656
Rp657
s(g541
g13
I0
g541
g16
I0
tp658
g483
(g93
S'%\x085\xf5\xb7\xd0\xd6?'
p659
tp660
Rp661
s(g541
g13
I2
g541
g17
I1
tp662
g483
(g93
S'!\xa7\xe0~z\n\x08@'
p663
tp664
Rp665
s(g541
g16
I4
g541
g14
I0
tp666
g483
(g93
S'o1v;\xb2H\xcf?'
p667
tp668
Rp669
s(g541
g17
I2
g541
g17
I1
tp670
g483
(g93
S'\x1f\x86\x14i\xb8\xb9\x07@'
p671
tp672
Rp673
s(g541
g14
I2
g541
g13
I0
tp674
g483
(g93
S',\xc7\x8e9\xd7\xe3\xdb?'
p675
tp676
Rp677
s(g541
g14
I0
g541
g17
I3
tp678
g483
(g93
S'x$\xc4\xecH\xc6\xf8?'
p679
tp680
Rp681
s(g541
g16
I2
g541
g12
I1
tp682
g483
(g93
S'\xc3\xb6\xe5t\xfd\x9b\xd9?'
p683
tp684
Rp685
s(g541
g15
I0
g541
g12
I3
tp686
g483
(g93
S'\xd2\x072\x9d\xc2\xd0\xab?'
p687
tp688
Rp689
s(g541
g16
I1
g541
g16
I0
tp690
g483
(g93
S'3\xf1\xce\xf7oP\xee?'
p691
tp692
Rp693
s(g541
g17
I1
g541
g15
I0
tp694
g483
(g93
S'{\xeb\xc8\xde\xef\xb5\xd1?'
p695
tp696
Rp697
s(g541
g14
I3
g541
g17
I3
tp698
g483
(g93
S'u\xda\xb1\r\x94r\r@'
p699
tp700
Rp701
s(g541
g13
I3
g541
g15
I1
tp702
g483
(g93
S'aD5A\\\xd2\xd3?'
p703
tp704
Rp705
s(g541
g12
I1
g541
g15
I0
tp706
g483
(g93
S'\xd6\r\x0fd\x16\x13\xc2?'
p707
tp708
Rp709
s(g541
g15
I2
g541
g17
I0
tp710
g483
(g93
S'\xc3\xdf\xd1\xaa\xf0\xcb\xe1?'
p711
tp712
Rp713
s(g541
g17
I1
g541
g16
I4
tp714
g483
(g93
S"#C^\x82'O\xf5?"
p715
tp716
Rp717
s(g541
g15
I1
g541
g14
I3
tp718
g483
(g93
S'9o\xfd\xe1ww\xcb?'
p719
tp720
Rp721
s(g541
g14
I1
g541
g17
I4
tp722
g483
(g93
S's\xf1_T=\x14\t@'
p723
tp724
Rp725
s(g541
g16
I4
g541
g17
I1
tp726
g483
(g93
S'\xfa\xe7y\x92\xd5\x17\x02@'
p727
tp728
Rp729
s(g541
g17
I2
g541
g14
I0
tp730
g483
(g93
S'\x91\x16\xa7\xfd\xfb\xb7\xe2?'
p731
tp732
Rp733
s(g541
g15
I2
g541
g13
I1
tp734
g483
(g93
S'\xe9qQ\xc4\xff/\xe8?'
p735
tp736
Rp737
s(g541
g17
I1
g541
g14
I0
tp738
g483
(g93
S'\x91\x16\xa7\xfd\xfb\xb7\xe2?'
p739
tp740
Rp741
s(g541
g16
I2
g541
g15
I0
tp742
g483
(g93
S'\x83\x8c\x93\r0\xa6\xdd?'
p743
tp744
Rp745
s(g541
g17
I1
g541
g16
I3
tp746
g483
(g93
S"#C^\x82'O\xf5?"
p747
tp748
Rp749
s(g541
g16
I0
g541
g12
I1
tp750
g483
(g93
S'?\xa4\xe6h\x1e\x16\xc6?'
p751
tp752
Rp753
s(g541
g14
I4
g541
g15
I1
tp754
g483
(g93
S'\x1a]d\x95\xab\x16\xd2?'
p755
tp756
Rp757
s(g541
g12
I3
g541
g16
I4
tp758
g483
(g93
S'\x86@\xd2\xb1\xeb\xaa\x01@'
p759
tp760
Rp761
s(g541
g13
I3
g541
g14
I2
tp762
g483
(g93
S'[\xec\x0e\x102\x9a\xf7?'
p763
tp764
Rp765
s(g541
g12
I1
g541
g12
I1
tp766
g483
(g93
S'%\xe3H\xee3\x92\x01@'
p767
tp768
Rp769
s(g541
g12
I3
g541
g15
I0
tp770
g483
(g93
S'\xd6\r\x0fd\x16\x13\xc2?'
p771
tp772
Rp773
s(g541
g17
I4
g541
g15
I1
tp774
g483
(g93
S',\xec>\x96\x8e\xe1\xe1?'
p775
tp776
Rp777
s(g541
g16
I3
g541
g13
I1
tp778
g483
(g93
S'\x877\x1d\xc29|\xf2?'
p779
tp780
Rp781
s(g541
g13
I1
g541
g12
I1
tp782
g483
(g93
S'\x0c\xbd1K\x8b\xbf\xe3?'
p783
tp784
Rp785
s(g541
g13
I0
g541
g17
I0
tp786
g483
(g93
S' \xfc\x900\xadC\xf5?'
p787
tp788
Rp789
s(g541
g13
I2
g541
g12
I3
tp790
g483
(g93
S'\x04Q\xd8kG\xb7\xef?'
p791
tp792
Rp793
s(g541
g16
I4
g541
g13
I0
tp794
g483
(g93
S'\xafw&^\xbbm\xcc?'
p795
tp796
Rp797
s(g541
g14
I2
g541
g12
I0
tp798
g483
(g93
S'0\xba\xa9o\x15n\xb3?'
p799
tp800
Rp801
s(g541
g14
I0
g541
g16
I1
tp802
g483
(g93
S'\xce\xbb*4\xe4a\xd8?'
p803
tp804
Rp805
s(g541
g12
I0
g541
g14
I1
tp806
g483
(g93
S'f\x08\xd9\x01\xe9+\xc3?'
p807
tp808
Rp809
s(g541
g14
I4
g541
g14
I2
tp810
g483
(g93
S'\x01ZU\xed\x18\xda\x06@'
p811
tp812
Rp813
s(g541
g16
I1
g541
g14
I0
tp814
g483
(g93
S'o1v;\xb2H\xcf?'
p815
tp816
Rp817
s(g541
g17
I4
g541
g14
I4
tp818
g483
(g93
S'\x9cd\x18\xfaws\xf8?'
p819
tp820
Rp821
s(g541
g14
I2
g541
g13
I4
tp822
g483
(g93
S'\x94k}_\xd9\xeb\xf6?'
p823
tp824
Rp825
s(g541
g17
I4
g541
g14
I3
tp826
g483
(g93
S'\x99\xdc\xd4u\xdb?\xf6?'
p827
tp828
Rp829
s(g541
g15
I1
g541
g17
I1
tp830
g483
(g93
S'\x8f\xf6{a\xb75\xe2?'
p831
tp832
Rp833
s(g541
g12
I3
g541
g12
I1
tp834
g483
(g93
S'%\xe3H\xee3\x92\x01@'
p835
tp836
Rp837
s(g541
g17
I3
g541
g16
I3
tp838
g483
(g93
S'pp\x01\xe6\xb0\x9a\x04@'
p839
tp840
Rp841
s(g541
g12
I4
g541
g16
I1
tp842
g483
(g93
S'\x1f\x7f\x1b\xcb\xb0\xb1\xf3?'
p843
tp844
Rp845
s(g541
g16
I3
g541
g12
I2
tp846
g483
(g93
S'\xfc\x01?lD\xdb\xe3?'
p847
tp848
Rp849
s(g541
g13
I1
g541
g15
I0
tp850
g483
(g93
S'\xff\xec\xf5\xf9G\xa6\xca?'
p851
tp852
Rp853
s(g541
g15
I1
g541
g16
I3
tp854
g483
(g93
S'}\xc0s+\xfds\xee?'
p855
tp856
Rp857
s(g541
g15
I1
g541
g14
I0
tp858
g483
(g93
S'\xeb\xbd\xfd\xdf\x83\xb3\xc3?'
p859
tp860
Rp861
s(g541
g13
I0
g541
g13
I1
tp862
g483
(g93
S'\xd8<\xd1P\xfeR\xf1?'
p863
tp864
Rp865
s(g541
g13
I4
g541
g14
I2
tp866
g483
(g93
S'[\xec\x0e\x102\x9a\xf7?'
p867
tp868
Rp869
s(g541
g12
I2
g541
g14
I3
tp870
g483
(g93
S'\xe7\x157\xb8B\x04\xeb?'
p871
tp872
Rp873
s(g541
g14
I2
g541
g16
I1
tp874
g483
(g93
S'\xfc\xca#zK\x96\xeb?'
p875
tp876
Rp877
s(g541
g14
I0
g541
g12
I2
tp878
g483
(g93
S'0\xba\xa9o\x15n\xb3?'
p879
tp880
Rp881
s(g541
g17
I2
g541
g14
I4
tp882
g483
(g93
S'\x97T\x91\xf1>\x0c\xf4?'
p883
tp884
Rp885
s(g541
g16
I0
g541
g17
I3
tp886
g483
(g93
S'\xfa\xd9X5\xaa\xb1\xeb?'
p887
tp888
Rp889
s(g541
g15
I1
g541
g12
I2
tp890
g483
(g93
S'a\x13\x14\x95\xc5\xde\xaf?'
p891
tp892
Rp893
s(g541
g13
I3
g541
g13
I2
tp894
g483
(g93
S'\xdce\xd7\x0bB\x9e\x1a@'
p895
tp896
Rp897
s(g541
g16
I1
g541
g13
I2
tp898
g483
(g93
S'dT\x8e\x16\x0c\xe6\xe6?'
p899
tp900
Rp901
s(g541
g12
I3
g541
g16
I0
tp902
g483
(g93
S'6\x94N\x14"\xfc\xe0?'
p903
tp904
Rp905
s(g541
g16
I1
g541
g16
I3
tp906
g483
(g93
S'\xfe$\xf8M\xa5s\xfd?'
p907
tp908
Rp909
s(g541
g17
I4
g541
g13
I1
tp910
g483
(g93
S'\x1d\xb0\x18B\xed\xf1\xf7?'
p911
tp912
Rp913
s(g541
g14
I3
g541
g14
I2
tp914
g483
(g93
S'\x01ZU\xed\x18\xda\x06@'
p915
tp916
Rp917
s(g541
g13
I2
g541
g14
I3
tp918
g483
(g93
S'[\xec\x0e\x102\x9a\xf7?'
p919
tp920
Rp921
s(g541
g16
I1
g541
g12
I2
tp922
g483
(g93
S'\xc3\xb6\xe5t\xfd\x9b\xd9?'
p923
tp924
Rp925
s(g541
g14
I2
g541
g14
I4
tp926
g483
(g93
S'\x01ZU\xed\x18\xda\x06@'
p927
tp928
Rp929
s(g541
g13
I2
g541
g13
I1
tp930
g483
(g93
S'\x18s\xe1\xb8\xdd\xf6\x11@'
p931
tp932
Rp933
s(g541
g16
I4
g541
g12
I0
tp934
g483
(g93
S'?\xa4\xe6h\x1e\x16\xc6?'
p935
tp936
Rp937
s(g541
g17
I2
g541
g15
I1
tp938
g483
(g93
S'0\x8aR\xce3\x1f\xd2?'
p939
tp940
Rp941
s(g541
g15
I2
g541
g14
I0
tp942
g483
(g93
S'\xeb\xbd\xfd\xdf\x83\xb3\xc3?'
p943
tp944
Rp945
s(g541
g15
I1
g541
g13
I3
tp946
g483
(g93
S'\xfe.\xdd8\xdc:\xcd?'
p947
tp948
Rp949
s(g541
g13
I0
g541
g17
I4
tp950
g483
(g93
S' \xfc\x900\xadC\xf5?'
p951
tp952
Rp953
s(g541
g17
I3
g541
g12
I2
tp954
g483
(g93
S'\xef\n\xa3\xda\xdek\xe8?'
p955
tp956
Rp957
s(g541
g14
I4
g541
g13
I2
tp958
g483
(g93
S'\x94k}_\xd9\xeb\xf6?'
p959
tp960
Rp961
s(g541
g13
I3
g541
g14
I1
tp962
g483
(g93
S'\x0e\x95g\xd8\\H\xf6?'
p963
tp964
Rp965
s(g541
g12
I0
g541
g17
I1
tp966
g483
(g93
S'7)\xeek\xf5\x89\xf1?'
p967
tp968
Rp969
s(g541
g14
I2
g541
g12
I4
tp970
g483
(g93
S'd\xa4\xcdI\x83a\xdb?'
p971
tp972
Rp973
s(g541
g17
I3
g541
g16
I4
tp974
g483
(g93
S'pp\x01\xe6\xb0\x9a\x04@'
p975
tp976
Rp977
s(g541
g16
I3
g541
g13
I4
tp978
g483
(g93
S'\xe7\xfb4c\xa8A\xf4?'
p979
tp980
Rp981
s(g541
g15
I0
g541
g13
I1
tp982
g483
(g93
S';\xa7\xad@5\xa6\xc3?'
p983
tp984
Rp985
s(g541
g17
I4
g541
g14
I0
tp986
g483
(g93
S'\x91\x16\xa7\xfd\xfb\xb7\xe2?'
p987
tp988
Rp989
s(g541
g12
I3
g541
g13
I3
tp990
g483
(g93
S'\xe2]\x02l\xa5;\x01@'
p991
tp992
Rp993
s(g541
g12
I4
g541
g13
I3
tp994
g483
(g93
S'\xe2]\x02l\xa5;\x01@'
p995
tp996
Rp997
s(g541
g17
I2
g541
g13
I4
tp998
g483
(g93
S'\xaf\xda\xc8\xe8h4\xf9?'
p999
tp1000
Rp1001
s(g541
g13
I4
g541
g12
I2
tp1002
g483
(g93
S'\x04Q\xd8kG\xb7\xef?'
p1003
tp1004
Rp1005
s(g541
g17
I0
g541
g16
I3
tp1006
g483
(g93
S'\x99\x18\xe0j\xefN\xe0?'
p1007
tp1008
Rp1009
s(g541
g16
I2
g541
g16
I4
tp1010
g483
(g93
S'*\xa6\xec\x9f]{\x05@'
p1011
tp1012
Rp1013
s(g541
g16
I4
g541
g15
I1
tp1014
g483
(g93
S'`\xd8\xce\xd1h\xbb\xe9?'
p1015
tp1016
Rp1017
s(g541
g17
I2
g541
g12
I0
tp1018
g483
(g93
S'\x91\x0c\x90\x9d[\xdc\xca?'
p1019
tp1020
Rp1021
s(g541
g12
I2
g541
g13
I1
tp1022
g483
(g93
S'\x00\xbb\x9a\xf7\xc6x\xfb?'
p1023
tp1024
Rp1025
s(g541
g17
I0
g541
g15
I1
tp1026
g483
(g93
S'{\xeb\xc8\xde\xef\xb5\xd1?'
p1027
tp1028
Rp1029
s(g541
g16
I2
g541
g16
I0
tp1030
g483
(g93
S'3\xf1\xce\xf7oP\xee?'
p1031
tp1032
Rp1033
s(g541
g16
I2
g541
g17
I0
tp1034
g483
(g93
S'\xfa\xd9X5\xaa\xb1\xeb?'
p1035
tp1036
Rp1037
s(g541
g16
I0
g541
g16
I1
tp1038
g483
(g93
S'3\xf1\xce\xf7oP\xee?'
p1039
tp1040
Rp1041
s(g541
g14
I3
g541
g12
I2
tp1042
g483
(g93
S'd\xa4\xcdI\x83a\xdb?'
p1043
tp1044
Rp1045
s(g541
g12
I1
g541
g16
I1
tp1046
g483
(g93
S'\x1f\x7f\x1b\xcb\xb0\xb1\xf3?'
p1047
tp1048
Rp1049
s(g541
g16
I1
g541
g14
I2
tp1050
g483
(g93
S'\xde;D\xed\xa8\xb2\xe1?'
p1051
tp1052
Rp1053
s(g541
g17
I3
g541
g14
I2
tp1054
g483
(g93
S'\x97T\x91\xf1>\x0c\xf4?'
p1055
tp1056
Rp1057
s(g541
g12
I3
g541
g17
I0
tp1058
g483
(g93
S'7)\xeek\xf5\x89\xf1?'
p1059
tp1060
Rp1061
s(g541
g13
I0
g541
g14
I4
tp1062
g483
(g93
S'vN^\x14\xfb\xb7\xdc?'
p1063
tp1064
Rp1065
s(g541
g12
I1
g541
g13
I3
tp1066
g483
(g93
S'\xa86\xff\xb3\xae\x9d\xf5?'
p1067
tp1068
Rp1069
s(g541
g13
I1
g541
g14
I1
tp1070
g483
(g93
S'\x0e\x95g\xd8\\H\xf6?'
p1071
tp1072
Rp1073
s(g541
g13
I0
g541
g15
I0
tp1074
g483
(g93
S'\xff\xec\xf5\xf9G\xa6\xca?'
p1075
tp1076
Rp1077
s(g541
g17
I4
g541
g13
I3
tp1078
g483
(g93
S'\x82\x03\xb1\x03\xc3m\xfb?'
p1079
tp1080
Rp1081
s(g541
g12
I2
g541
g16
I2
tp1082
g483
(g93
S'2/\xfa\xf2E\x8a\xfe?'
p1083
tp1084
Rp1085
s(g541
g17
I0
g541
g12
I0
tp1086
g483
(g93
S'\x91\x0c\x90\x9d[\xdc\xca?'
p1087
tp1088
Rp1089
s(g541
g14
I2
g541
g14
I0
tp1090
g483
(g93
S'\xf0\x0fU\xce\xe2/\xeb?'
p1091
tp1092
Rp1093
s(g541
g15
I2
g541
g17
I4
tp1094
g483
(g93
S'\xe8\xee\xf3\x12\xe1|\x06@'
p1095
tp1096
Rp1097
s(g541
g12
I2
g541
g17
I2
tp1098
g483
(g93
S'\xca\xb1\xd3Td\xe4\x0f@'
p1099
tp1100
Rp1101
s(g541
g16
I4
g541
g12
I4
tp1102
g483
(g93
S'9\xe2\xa7\xcf\x8a\x17\xea?'
p1103
tp1104
Rp1105
s(g541
g15
I0
g541
g17
I3
tp1106
g483
(g93
S'\xc3\xdf\xd1\xaa\xf0\xcb\xe1?'
p1107
tp1108
Rp1109
s(g541
g15
I2
g541
g14
I4
tp1110
g483
(g93
S'\x84\x81\xf7q\xb2^\xe4?'
p1111
tp1112
Rp1113
s(g541
g15
I0
g541
g16
I3
tp1114
g483
(g93
S'\xc8\xda\xd7\\_\x8b\xe1?'
p1115
tp1116
Rp1117
s(g541
g13
I1
g541
g16
I4
tp1118
g483
(g93
S'\xf2Q\xb8\xa1\xa9\xab\xfd?'
p1119
tp1120
Rp1121
s(g541
g12
I3
g541
g14
I1
tp1122
g483
(g93
S'XL\xca\xb9\xc3t\xea?'
p1123
tp1124
Rp1125
s(g541
g12
I4
g541
g12
I1
tp1126
g483
(g93
S'%\xe3H\xee3\x92\x01@'
p1127
tp1128
Rp1129
s(g541
g17
I1
g541
g17
I1
tp1130
g483
(g93
S'\x1f\x86\x14i\xb8\xb9\x07@'
p1131
tp1132
Rp1133
s(g541
g17
I2
g541
g16
I4
tp1134
g483
(g93
S'\xa14zrb\xe2\x00@'
p1135
tp1136
Rp1137
s(g541
g13
I1
g541
g17
I0
tp1138
g483
(g93
S' \xfc\x900\xadC\xf5?'
p1139
tp1140
Rp1141
s(g541
g15
I2
g541
g16
I3
tp1142
g483
(g93
S'\xbaC\t-\xc4S\xfc?'
p1143
tp1144
Rp1145
s(g541
g16
I2
g541
g13
I4
tp1146
g483
(g93
S'\xea\xee\x8c\x8b\xdd\xda\xf2?'
p1147
tp1148
Rp1149
s(g541
g13
I2
g541
g15
I0
tp1150
g483
(g93
S'\xff\xec\xf5\xf9G\xa6\xca?'
p1151
tp1152
Rp1153
s(g541
g17
I2
g541
g13
I0
tp1154
g483
(g93
S'd\x8d\xf62\xb34\xdf?'
p1155
tp1156
Rp1157
s(g541
g16
I2
g541
g14
I0
tp1158
g483
(g93
S'o1v;\xb2H\xcf?'
p1159
tp1160
Rp1161
s(g541
g12
I0
g541
g13
I0
tp1162
g483
(g93
S"'\xd9\x0f\xa5h\xd2\xdd?"
p1163
tp1164
Rp1165
s(g541
g16
I3
g541
g14
I1
tp1166
g483
(g93
S'\xfd\xca\x95\xc05N\xea?'
p1167
tp1168
Rp1169
s(g541
g17
I2
g541
g12
I4
tp1170
g483
(g93
S'\xef\n\xa3\xda\xdek\xe8?'
p1171
tp1172
Rp1173
s(g541
g15
I2
g541
g17
I2
tp1174
g483
(g93
S'\xb4\x11\x97`\xee?\xfb?'
p1175
tp1176
Rp1177
s(g541
g16
I2
g541
g17
I4
tp1178
g483
(g93
S'\xa5\x7fhP\x0e\xac\x0c@'
p1179
tp1180
Rp1181
s(g541
g16
I4
g541
g16
I0
tp1182
g483
(g93
S'3\xf1\xce\xf7oP\xee?'
p1183
tp1184
Rp1185
s(g541
g17
I4
g541
g16
I1
tp1186
g483
(g93
S"#C^\x82'O\xf5?"
p1187
tp1188
Rp1189
s(g541
g12
I1
g541
g17
I3
tp1190
g483
(g93
S'h\x94\xca\xcd\xf4#\x05@'
p1191
tp1192
Rp1193
s(g541
g14
I1
g541
g16
I1
tp1194
g483
(g93
S'\xb3m\xd2\x89\xd2\xfc\xea?'
p1195
tp1196
Rp1197
s(g541
g17
I3
g541
g15
I2
tp1198
g483
(g93
S'\xc1p`#\x19\xf8\xf1?'
p1199
tp1200
Rp1201
s(g541
g12
I4
g541
g15
I0
tp1202
g483
(g93
S'\xd6\r\x0fd\x16\x13\xc2?'
p1203
tp1204
Rp1205
s(g541
g13
I3
g541
g12
I2
tp1206
g483
(g93
S'\x04Q\xd8kG\xb7\xef?'
p1207
tp1208
Rp1209
s(g541
g17
I4
g541
g16
I4
tp1210
g483
(g93
S'?\xac\x88Y\xffR\x08@'
p1211
tp1212
Rp1213
s(g541
g12
I3
g541
g17
I4
tp1214
g483
(g93
S'\xed{Y%\x10w\x13@'
p1215
tp1216
Rp1217
s(g541
g13
I0
g541
g14
I0
tp1218
g483
(g93
S'vN^\x14\xfb\xb7\xdc?'
p1219
tp1220
Rp1221
s(g541
g14
I1
g541
g12
I0
tp1222
g483
(g93
S'0\xba\xa9o\x15n\xb3?'
p1223
tp1224
Rp1225
s(g541
g12
I2
g541
g15
I2
tp1226
g483
(g93
S'Oa\x07\x99\x83\x89\xed?'
p1227
tp1228
Rp1229
s(g541
g17
I0
g541
g13
I0
tp1230
g483
(g93
S'd\x8d\xf62\xb34\xdf?'
p1231
tp1232
Rp1233
s(g541
g14
I2
g541
g15
I0
tp1234
g483
(g93
S'\xe7\xbfb\xe1\xf3\xf2\xc9?'
p1235
tp1236
Rp1237
s(g541
g16
I0
g541
g14
I0
tp1238
g483
(g93
S'o1v;\xb2H\xcf?'
p1239
tp1240
Rp1241
s(g541
g15
I2
g541
g16
I1
tp1242
g483
(g93
S')\xb6\x12\xcaH6\xef?'
p1243
tp1244
Rp1245
s(g541
g17
I0
g541
g12
I4
tp1246
g483
(g93
S'\x91\x0c\x90\x9d[\xdc\xca?'
p1247
tp1248
Rp1249
s(g541
g14
I4
g541
g12
I2
tp1250
g483
(g93
S'd\xa4\xcdI\x83a\xdb?'
p1251
tp1252
Rp1253
s(g541
g15
I0
g541
g17
I1
tp1254
g483
(g93
S'\xc3\xdf\xd1\xaa\xf0\xcb\xe1?'
p1255
tp1256
Rp1257
s(g541
g14
I1
g541
g13
I2
tp1258
g483
(g93
S'?-\xb3\xab\xc3\xa3\xf5?'
p1259
tp1260
Rp1261
s(g541
g13
I1
g541
g13
I4
tp1262
g483
(g93
S'\x18s\xe1\xb8\xdd\xf6\x11@'
p1263
tp1264
Rp1265
s(g541
g16
I3
g541
g13
I3
tp1266
g483
(g93
S'\xe7\xfb4c\xa8A\xf4?'
p1267
tp1268
Rp1269
s(g541
g15
I2
g541
g12
I0
tp1270
g483
(g93
S'\xd2\x072\x9d\xc2\xd0\xab?'
p1271
tp1272
Rp1273
s(g541
g13
I2
g541
g17
I4
tp1274
g483
(g93
S'V\x06@\x81\xd0,\x11@'
p1275
tp1276
Rp1277
s(g541
g17
I2
g541
g17
I4
tp1278
g483
(g93
S'\xb9\x94\xaaS\xbfr\x12@'
p1279
tp1280
Rp1281
s(g541
g14
I1
g541
g12
I2
tp1282
g483
(g93
S'\xe7J\xbb\xfe\x14\xd0\xda?'
p1283
tp1284
Rp1285
s(g541
g13
I1
g541
g16
I0
tp1286
g483
(g93
S'%\x085\xf5\xb7\xd0\xd6?'
p1287
tp1288
Rp1289
s(g541
g16
I2
g541
g12
I4
tp1290
g483
(g93
S'\xfc\x01?lD\xdb\xe3?'
p1291
tp1292
Rp1293
s(g541
g13
I2
g541
g16
I0
tp1294
g483
(g93
S'%\x085\xf5\xb7\xd0\xd6?'
p1295
tp1296
Rp1297
s(g541
g17
I2
g541
g16
I0
tp1298
g483
(g93
S'\x99\x18\xe0j\xefN\xe0?'
p1299
tp1300
Rp1301
s(g541
g13
I4
g541
g13
I2
tp1302
g483
(g93
S'\xdce\xd7\x0bB\x9e\x1a@'
p1303
tp1304
Rp1305
s(g541
g13
I1
g541
g17
I4
tp1306
g483
(g93
S'e\x98\x08C\x11Q\x10@'
p1307
tp1308
Rp1309
s(g541
g17
I0
g541
g17
I1
tp1310
g483
(g93
S'\xe7\x9a\x98\xdb\x06\xab\xf2?'
p1311
tp1312
Rp1313
s(g541
g12
I0
g541
g12
I0
tp1314
g483
(g93
S'\xb5\\M\xfa\xa3l\xea?'
p1315
tp1316
Rp1317
s(g541
g17
I1
g541
g14
I3
tp1318
g483
(g93
S'\xc2\xf1\xb1\xf3\rv\xef?'
p1319
tp1320
Rp1321
s(g541
g16
I2
g541
g13
I0
tp1322
g483
(g93
S'\xafw&^\xbbm\xcc?'
p1323
tp1324
Rp1325
s(g541
g12
I2
g541
g12
I3
tp1326
g483
(g93
S'`\xe5\xcf\xce5\xfa\x03@'
p1327
tp1328
Rp1329
s(g541
g12
I0
g541
g13
I4
tp1330
g483
(g93
S"'\xd9\x0f\xa5h\xd2\xdd?"
p1331
tp1332
Rp1333
s(g541
g15
I0
g541
g14
I0
tp1334
g483
(g93
S'\xeb\xbd\xfd\xdf\x83\xb3\xc3?'
p1335
tp1336
Rp1337
s(g541
g16
I3
g541
g12
I0
tp1338
g483
(g93
S'?\xa4\xe6h\x1e\x16\xc6?'
p1339
tp1340
Rp1341
s(g541
g13
I3
g541
g16
I2
tp1342
g483
(g93
S'D\xf1#|\x91C\xfe?'
p1343
tp1344
Rp1345
s(g541
g13
I0
g541
g12
I4
tp1346
g483
(g93
S'R\xa4,\xaa<\x1f\xcf?'
p1347
tp1348
Rp1349
s(g541
g14
I3
g541
g13
I2
tp1350
g483
(g93
S'\x94k}_\xd9\xeb\xf6?'
p1351
tp1352
Rp1353
s(g541
g13
I3
g541
g17
I2
tp1354
g483
(g93
S'V\x06@\x81\xd0,\x11@'
p1355
tp1356
Rp1357
s(g541
g14
I2
g541
g17
I4
tp1358
g483
(g93
S'\x832\x81\xad\xa0\x88\n@'
p1359
tp1360
Rp1361
s(g541
g14
I0
g541
g13
I3
tp1362
g483
(g93
S',\xc7\x8e9\xd7\xe3\xdb?'
p1363
tp1364
Rp1365
s(g541
g16
I0
g541
g12
I4
tp1366
g483
(g93
S'?\xa4\xe6h\x1e\x16\xc6?'
p1367
tp1368
Rp1369
s(g541
g17
I0
g541
g14
I0
tp1370
g483
(g93
S'\x91\x16\xa7\xfd\xfb\xb7\xe2?'
p1371
tp1372
Rp1373
s(g541
g15
I2
g541
g15
I0
tp1374
g483
(g93
S'\x90x\xe3\x83*\xf1\xec?'
p1375
tp1376
Rp1377
s(g541
g14
I0
g541
g14
I1
tp1378
g483
(g93
S'\xf0\x0fU\xce\xe2/\xeb?'
p1379
tp1380
Rp1381
s(g541
g17
I4
g541
g16
I3
tp1382
g483
(g93
S'pp\x01\xe6\xb0\x9a\x04@'
p1383
tp1384
Rp1385
s(g541
g12
I0
g541
g16
I1
tp1386
g483
(g93
S'6\x94N\x14"\xfc\xe0?'
p1387
tp1388
Rp1389
s(g541
g16
I0
g541
g13
I0
tp1390
g483
(g93
S'\xafw&^\xbbm\xcc?'
p1391
tp1392
Rp1393
s(g541
g14
I4
g541
g16
I2
tp1394
g483
(g93
S'\xc0\xbe\xc7|Y\xe4\xf4?'
p1395
tp1396
Rp1397
s(g541
g17
I0
g541
g13
I4
tp1398
g483
(g93
S'd\x8d\xf62\xb34\xdf?'
p1399
tp1400
Rp1401
s(g541
g16
I0
g541
g14
I4
tp1402
g483
(g93
S'o1v;\xb2H\xcf?'
p1403
tp1404
Rp1405
s(g541
g14
I4
g541
g17
I2
tp1406
g483
(g93
S'\x832\x81\xad\xa0\x88\n@'
p1407
tp1408
Rp1409
s(g541
g17
I1
g541
g12
I0
tp1410
g483
(g93
S'\x91\x0c\x90\x9d[\xdc\xca?'
p1411
tp1412
Rp1413
s(g541
g14
I1
g541
g14
I2
tp1414
g483
(g93
S'~\x1a\xf8\xaa\x8f>\x01@'
p1415
tp1416
Rp1417
s(g541
g13
I1
g541
g12
I4
tp1418
g483
(g93
S'\xc9\xa1\x8bv`\xab\xec?'
p1419
tp1420
Rp1421
s(g541
g15
I0
g541
g15
I0
tp1422
g483
(g93
S'\x90x\xe3\x83*\xf1\xec?'
p1423
tp1424
Rp1425
s(g541
g12
I4
g541
g14
I1
tp1426
g483
(g93
S'XL\xca\xb9\xc3t\xea?'
p1427
tp1428
Rp1429
s(g541
g17
I0
g541
g16
I4
tp1430
g483
(g93
S'\x99\x18\xe0j\xefN\xe0?'
p1431
tp1432
Rp1433
s(g541
g12
I1
g541
g14
I2
tp1434
g483
(g93
S'\xed\x9f\xbaP\xb5`\xe0?'
p1435
tp1436
Rp1437
s(g541
g13
I4
g541
g17
I2
tp1438
g483
(g93
S'V\x06@\x81\xd0,\x11@'
p1439
tp1440
Rp1441
s(g541
g13
I1
g541
g13
I0
tp1442
g483
(g93
S'\xd8<\xd1P\xfeR\xf1?'
p1443
tp1444
Rp1445
s(g541
g13
I0
g541
g16
I1
tp1446
g483
(g93
S'%\x085\xf5\xb7\xd0\xd6?'
p1447
tp1448
Rp1449
s(g541
g13
I2
g541
g17
I0
tp1450
g483
(g93
S' \xfc\x900\xadC\xf5?'
p1451
tp1452
Rp1453
s(g541
g16
I4
g541
g14
I3
tp1454
g483
(g93
S'\xd2\xd0\xae\xc8\x1cx\xee?'
p1455
tp1456
Rp1457
s(g541
g17
I2
g541
g17
I0
tp1458
g483
(g93
S'\xe7\x9a\x98\xdb\x06\xab\xf2?'
p1459
tp1460
Rp1461
s(g541
g13
I4
g541
g16
I2
tp1462
g483
(g93
S'D\xf1#|\x91C\xfe?'
p1463
tp1464
Rp1465
s(g541
g14
I2
g541
g13
I1
tp1466
g483
(g93
S'?-\xb3\xab\xc3\xa3\xf5?'
p1467
tp1468
Rp1469
s(g541
g14
I0
g541
g17
I0
tp1470
g483
(g93
S'x$\xc4\xecH\xc6\xf8?'
p1471
tp1472
Rp1473
s(g541
g16
I2
g541
g12
I0
tp1474
g483
(g93
S'?\xa4\xe6h\x1e\x16\xc6?'
p1475
tp1476
Rp1477
s(g541
g13
I2
g541
g16
I4
tp1478
g483
(g93
S'D\xf1#|\x91C\xfe?'
p1479
tp1480
Rp1481
s(g541
g12
I0
g541
g12
I4
tp1482
g483
(g93
S'\xb5\\M\xfa\xa3l\xea?'
p1483
tp1484
Rp1485
s(g541
g12
I4
g541
g16
I4
tp1486
g483
(g93
S"ri'j\xb4\x10\x04@"
p1487
tp1488
Rp1489
s(g541
g17
I1
g541
g15
I1
tp1490
g483
(g93
S'0\x8aR\xce3\x1f\xd2?'
p1491
tp1492
Rp1493
s(g541
g14
I3
g541
g17
I2
tp1494
g483
(g93
S'\x832\x81\xad\xa0\x88\n@'
p1495
tp1496
Rp1497
s(g541
g13
I3
g541
g15
I2
tp1498
g483
(g93
S'\xe6H\xcd:\x86\x08\xf2?'
p1499
tp1500
Rp1501
s(g541
g12
I4
g541
g17
I0
tp1502
g483
(g93
S'7)\xeek\xf5\x89\xf1?'
p1503
tp1504
Rp1505
s(g541
g15
I0
g541
g14
I4
tp1506
g483
(g93
S'\xeb\xbd\xfd\xdf\x83\xb3\xc3?'
p1507
tp1508
Rp1509
s(g541
g14
I3
g541
g16
I2
tp1510
g483
(g93
S'\xc0\xbe\xc7|Y\xe4\xf4?'
p1511
tp1512
Rp1513
s(g541
g14
I1
g541
g17
I3
tp1514
g483
(g93
S's\xf1_T=\x14\t@'
p1515
tp1516
Rp1517
s(g541
g16
I2
g541
g16
I2
tp1518
g483
(g93
S'*\xa6\xec\x9f]{\x05@'
p1519
tp1520
Rp1521
s(g541
g13
I0
g541
g12
I0
tp1522
g483
(g93
S'R\xa4,\xaa<\x1f\xcf?'
p1523
tp1524
Rp1525
s(g541
g17
I2
g541
g14
I1
tp1526
g483
(g93
S'\x14w\xb1F\xe2\xf2\xf2?'
p1527
tp1528
Rp1529
s(g541
g16
I0
g541
g17
I4
tp1530
g483
(g93
S'\xfa\xd9X5\xaa\xb1\xeb?'
p1531
tp1532
Rp1533
s(g541
g14
I2
g541
g17
I0
tp1534
g483
(g93
S'x$\xc4\xecH\xc6\xf8?'
p1535
tp1536
Rp1537
s(g541
g16
I2
g541
g15
I1
tp1538
g483
(g93
S'\x88\x16A\xda\xebI\xde?'
p1539
tp1540
Rp1541
s(g541
g16
I0
g541
g12
I0
tp1542
g483
(g93
S'?\xa4\xe6h\x1e\x16\xc6?'
p1543
tp1544
Rp1545
s(g541
g14
I4
g541
g15
I2
tp1546
g483
(g93
S'p\x11W\xcbk\xd4\xea?'
p1547
tp1548
Rp1549
s(g541
g17
I0
g541
g14
I4
tp1550
g483
(g93
S'\x91\x16\xa7\xfd\xfb\xb7\xe2?'
p1551
tp1552
Rp1553
s(g541
g16
I3
g541
g16
I2
tp1554
g483
(g93
S'*\xa6\xec\x9f]{\x05@'
p1555
tp1556
Rp1557
s(g541
g17
I3
g541
g13
I4
tp1558
g483
(g93
S'\x82\x03\xb1\x03\xc3m\xfb?'
p1559
tp1560
Rp1561
s(g541
g16
I0
g541
g13
I4
tp1562
g483
(g93
S'\xafw&^\xbbm\xcc?'
p1563
tp1564
Rp1565
s(g541
g12
I1
g541
g12
I2
tp1566
g483
(g93
S'%\xe3H\xee3\x92\x01@'
p1567
tp1568
Rp1569
s(g541
g17
I3
g541
g12
I1
tp1570
g483
(g93
S']\x8fvy20\xe0?'
p1571
tp1572
Rp1573
s(g541
g13
I2
g541
g13
I4
tp1574
g483
(g93
S'\xdce\xd7\x0bB\x9e\x1a@'
p1575
tp1576
Rp1577
s(g541
g17
I1
g541
g12
I4
tp1578
g483
(g93
S']\x8fvy20\xe0?'
p1579
tp1580
Rp1581
s(g541
g16
I1
g541
g17
I1
tp1582
g483
(g93
S'\xfa\xe7y\x92\xd5\x17\x02@'
p1583
tp1584
Rp1585
s(g541
g13
I1
g541
g12
I0
tp1586
g483
(g93
S'R\xa4,\xaa<\x1f\xcf?'
p1587
tp1588
Rp1589
s(g541
g13
I0
g541
g17
I3
tp1590
g483
(g93
S' \xfc\x900\xadC\xf5?'
p1591
tp1592
Rp1593
s(g541
g17
I4
g541
g17
I3
tp1594
g483
(g93
S'\xd2#\xe2\x8a5\xf2\x16@'
p1595
tp1596
Rp1597
s(g541
g13
I2
g541
g12
I0
tp1598
g483
(g93
S'R\xa4,\xaa<\x1f\xcf?'
p1599
tp1600
Rp1601
s(g541
g16
I4
g541
g13
I1
tp1602
g483
(g93
S'\x877\x1d\xc29|\xf2?'
p1603
tp1604
Rp1605
s(g541
g14
I2
g541
g12
I3
tp1606
g483
(g93
S'd\xa4\xcdI\x83a\xdb?'
p1607
tp1608
Rp1609
s(g541
g14
I0
g541
g16
I0
tp1610
g483
(g93
S'\xce\xbb*4\xe4a\xd8?'
p1611
tp1612
Rp1613
s(g541
g12
I0
g541
g14
I0
tp1614
g483
(g93
S'f\x08\xd9\x01\xe9+\xc3?'
p1615
tp1616
Rp1617
s(g541
g15
I0
g541
g13
I4
tp1618
g483
(g93
S';\xa7\xad@5\xa6\xc3?'
p1619
tp1620
Rp1621
s(g541
g17
I4
g541
g17
I2
tp1622
g483
(g93
S'\xb9\x94\xaaS\xbfr\x12@'
p1623
tp1624
Rp1625
s(g541
g14
I0
g541
g17
I4
tp1626
g483
(g93
S'x$\xc4\xecH\xc6\xf8?'
p1627
tp1628
Rp1629
s(g541
g13
I2
g541
g12
I1
tp1630
g483
(g93
S'0\x89\n\x83\xed\x8e\xe6?'
p1631
tp1632
Rp1633
s(g541
g12
I4
g541
g13
I4
tp1634
g483
(g93
S'\xdc\xe6\x8b">E\x03@'
p1635
tp1636
Rp1637
s(g541
g15
I0
g541
g12
I0
tp1638
g483
(g93
S'\xd2\x072\x9d\xc2\xd0\xab?'
p1639
tp1640
Rp1641
s(g541
g15
I1
g541
g17
I2
tp1642
g483
(g93
S'\x8f\xf6{a\xb75\xe2?'
p1643
tp1644
Rp1645
s(g541
g17
I3
g541
g16
I2
tp1646
g483
(g93
S'\xa14zrb\xe2\x00@'
p1647
tp1648
Rp1649
s(g541
g12
I4
g541
g16
I0
tp1650
g483
(g93
S'6\x94N\x14"\xfc\xe0?'
p1651
tp1652
Rp1653
s(g541
g13
I1
g541
g15
I1
tp1654
g483
(g93
S'\xca2\xe8\xa7N\x19\xcb?'
p1655
tp1656
Rp1657
s(g541
g16
I1
g541
g16
I4
tp1658
g483
(g93
S'\xfe$\xf8M\xa5s\xfd?'
p1659
tp1660
Rp1661
s(g541
g16
I2
g541
g14
I2
tp1662
g483
(g93
S'\x17\xc6\x19c;\xce\xea?'
p1663
tp1664
Rp1665
s(g541
g15
I1
g541
g16
I1
tp1666
g483
(g93
S'\x92\x04T^B\xec\xe1?'
p1667
tp1668
Rp1669
s(g541
g12
I4
g541
g17
I4
tp1670
g483
(g93
S'\xf5\x1eI \xee\xfb\x16@'
p1671
tp1672
Rp1673
s(g541
g13
I0
g541
g13
I0
tp1674
g483
(g93
S'\xd8<\xd1P\xfeR\xf1?'
p1675
tp1676
Rp1677
s(g541
g13
I4
g541
g14
I3
tp1678
g483
(g93
S'\xd7\x82\x81\xbajm\xf9?'
p1679
tp1680
Rp1681
s(g541
g12
I2
g541
g14
I2
tp1682
g483
(g93
S'\xe7\x157\xb8B\x04\xeb?'
p1683
tp1684
Rp1685
s(g541
g14
I2
g541
g16
I0
tp1686
g483
(g93
S'\xce\xbb*4\xe4a\xd8?'
p1687
tp1688
Rp1689
s(g541
g14
I0
g541
g12
I1
tp1690
g483
(g93
S'0\xba\xa9o\x15n\xb3?'
p1691
tp1692
Rp1693
s(g541
g16
I4
g541
g17
I2
tp1694
g483
(g93
S'\xa5\x7fhP\x0e\xac\x0c@'
p1695
tp1696
Rp1697
s(g541
g16
I0
g541
g17
I0
tp1698
g483
(g93
S'\xfa\xd9X5\xaa\xb1\xeb?'
p1699
tp1700
Rp1701
s(g541
g13
I3
g541
g13
I3
tp1702
g483
(g93
S'\x85\xb8\xda;\x12\xf9\x1c@'
p1703
tp1704
Rp1705
s(g541
g12
I3
g541
g16
I1
tp1706
g483
(g93
S'\x1f\x7f\x1b\xcb\xb0\xb1\xf3?'
p1707
tp1708
Rp1709
s(g541
g17
I4
g541
g15
I2
tp1710
g483
(g93
S'KD\xebz\x13a\xf6?'
p1711
tp1712
Rp1713
s(g541
g14
I3
g541
g14
I3
tp1714
g483
(g93
S'\x9b\xfe\xcc\xcc*\xb2\t@'
p1715
tp1716
Rp1717
s(g541
g13
I2
g541
g14
I4
tp1718
g483
(g93
S'[\xec\x0e\x102\x9a\xf7?'
p1719
tp1720
Rp1721
s(g541
g16
I1
g541
g12
I3
tp1722
g483
(g93
S'\xc3\xb6\xe5t\xfd\x9b\xd9?'
p1723
tp1724
Rp1725
s(g541
g13
I2
g541
g13
I0
tp1726
g483
(g93
S'\xd8<\xd1P\xfeR\xf1?'
p1727
tp1728
Rp1729
s(g541
g17
I2
g541
g15
I0
tp1730
g483
(g93
S'{\xeb\xc8\xde\xef\xb5\xd1?'
p1731
tp1732
Rp1733
s(g541
g15
I2
g541
g14
I1
tp1734
g483
(g93
S'J\xe7\xfb\x17j\x7f\xe0?'
p1735
tp1736
Rp1737
s(g541
g14
I0
g541
g15
I0
tp1738
g483
(g93
S'\xe7\xbfb\xe1\xf3\xf2\xc9?'
p1739
tp1740
Rp1741
s(g541
g12
I0
g541
g15
I0
tp1742
g483
(g93
S'\xd6\r\x0fd\x16\x13\xc2?'
p1743
tp1744
Rp1745
s(g541
g16
I3
g541
g17
I3
tp1746
g483
(g93
S'4\xf1\x8b~\x9b~\x11@'
p1747
tp1748
Rp1749
s(g541
g14
I4
g541
g13
I3
tp1750
g483
(g93
S'>\x99\xb0\xc0\x96\xb1\xf8?'
p1751
tp1752
Rp1753
s(g541
g15
I0
g541
g16
I4
tp1754
g483
(g93
S'\xc8\xda\xd7\\_\x8b\xe1?'
p1755
tp1756
Rp1757
s(g541
g16
I4
g541
g14
I2
tp1758
g483
(g93
S'\x17\xc6\x19c;\xce\xea?'
p1759
tp1760
Rp1761
s(g541
g14
I0
g541
g16
I4
tp1762
g483
(g93
S'\xce\xbb*4\xe4a\xd8?'
p1763
tp1764
Rp1765
s(g541
g12
I4
g541
g12
I4
tp1766
g483
(g93
S'\xb3\xdb0]-\xd2\x0e@'
p1767
tp1768
Rp1769
s(g541
g14
I4
g541
g14
I1
tp1770
g483
(g93
S'~\x1a\xf8\xaa\x8f>\x01@'
p1771
tp1772
Rp1773
s(g541
g15
I0
g541
g13
I0
tp1774
g483
(g93
S';\xa7\xad@5\xa6\xc3?'
p1775
tp1776
Rp1777
s(g541
g17
I4
g541
g14
I1
tp1778
g483
(g93
S'\x14w\xb1F\xe2\xf2\xf2?'
p1779
tp1780
Rp1781
s(g541
g12
I3
g541
g13
I2
tp1782
g483
(g93
S'\xd2\xa9\xf1j\x19d\xfe?'
p1783
tp1784
Rp1785
s(g541
g12
I4
g541
g13
I0
tp1786
g483
(g93
S"'\xd9\x0f\xa5h\xd2\xdd?"
p1787
tp1788
Rp1789
s(g541
g15
I0
g541
g12
I4
tp1790
g483
(g93
S'\xd2\x072\x9d\xc2\xd0\xab?'
p1791
tp1792
Rp1793
s(g541
g13
I4
g541
g12
I3
tp1794
g483
(g93
S'\x1d\xf0,\xb7\xf9\xfb\xf1?'
p1795
tp1796
Rp1797
s(g541
g12
I3
g541
g12
I2
tp1798
g483
(g93
S'`\xe5\xcf\xce5\xfa\x03@'
p1799
tp1800
Rp1801
s(g541
g16
I4
g541
g15
I2
tp1802
g483
(g93
S'\\Y-\x9f\xc7:\xfd?'
p1803
tp1804
Rp1805
s(g541
g17
I2
g541
g12
I1
tp1806
g483
(g93
S']\x8fvy20\xe0?'
p1807
tp1808
Rp1809
s(g541
g12
I2
g541
g13
I2
tp1810
g483
(g93
S'\xd2\xa9\xf1j\x19d\xfe?'
p1811
tp1812
Rp1813
s(g541
g17
I0
g541
g15
I0
tp1814
g483
(g93
S'{\xeb\xc8\xde\xef\xb5\xd1?'
p1815
tp1816
Rp1817
s(g541
g16
I2
g541
g17
I1
tp1818
g483
(g93
S'\xfa\xe7y\x92\xd5\x17\x02@'
p1819
tp1820
Rp1821
s(g541
g13
I0
g541
g13
I4
tp1822
g483
(g93
S'\xd8<\xd1P\xfeR\xf1?'
p1823
tp1824
Rp1825
s(g541
g16
I0
g541
g16
I0
tp1826
g483
(g93
S'3\xf1\xce\xf7oP\xee?'
p1827
tp1828
Rp1829
s(g541
g14
I2
g541
g16
I4
tp1830
g483
(g93
S'\xc0\xbe\xc7|Y\xe4\xf4?'
p1831
tp1832
Rp1833
s(g541
g14
I3
g541
g12
I3
tp1834
g483
(g93
S'L\xa9n\x95\x0c\x86\xdd?'
p1835
tp1836
Rp1837
s(g541
g16
I2
g541
g16
I3
tp1838
g483
(g93
S'*\xa6\xec\x9f]{\x05@'
p1839
tp1840
Rp1841
s(g541
g14
I1
g541
g15
I2
tp1842
g483
(g93
S'\xb0\x9c\xd8\x82\xc6\xba\xe5?'
p1843
tp1844
Rp1845
s(g541
g17
I3
g541
g14
I1
tp1846
g483
(g93
S'\x14w\xb1F\xe2\xf2\xf2?'
p1847
tp1848
Rp1849
s(g541
g17
I4
g541
g13
I2
tp1850
g483
(g93
S'\xaf\xda\xc8\xe8h4\xf9?'
p1851
tp1852
Rp1853
s(g541
g15
I1
g541
g12
I1
tp1854
g483
(g93
S'a\x13\x14\x95\xc5\xde\xaf?'
p1855
tp1856
Rp1857
s(g541
g12
I1
g541
g13
I2
tp1858
g483
(g93
S'\xa86\xff\xb3\xae\x9d\xf5?'
p1859
tp1860
Rp1861
s(g541
g16
I1
g541
g13
I1
tp1862
g483
(g93
S'\xe0\xbdQ\xf7\x94h\xe6?'
p1863
tp1864
Rp1865
s(g541
g13
I1
g541
g14
I0
tp1866
g483
(g93
S'vN^\x14\xfb\xb7\xdc?'
p1867
tp1868
Rp1869
s(g541
g12
I0
g541
g17
I4
tp1870
g483
(g93
S'7)\xeek\xf5\x89\xf1?'
p1871
tp1872
Rp1873
s(g541
g16
I1
g541
g15
I1
tp1874
g483
(g93
S'\x88\x16A\xda\xebI\xde?'
p1875
tp1876
Rp1877
s(g541
g17
I4
g541
g13
I0
tp1878
g483
(g93
S'd\x8d\xf62\xb34\xdf?'
p1879
tp1880
Rp1881
s(g541
g13
I2
g541
g14
I0
tp1882
g483
(g93
S'vN^\x14\xfb\xb7\xdc?'
p1883
tp1884
Rp1885
s(g541
g17
I0
g541
g12
I1
tp1886
g483
(g93
S'\x91\x0c\x90\x9d[\xdc\xca?'
p1887
tp1888
Rp1889
s(g541
g13
I4
g541
g15
I2
tp1890
g483
(g93
S'\xa4\x93\x1dv\xf3\x99\xf3?'
p1891
tp1892
Rp1893
s(g541
g12
I2
g541
g17
I3
tp1894
g483
(g93
S'\xca\xb1\xd3Td\xe4\x0f@'
p1895
tp1896
Rp1897
s(g541
g16
I4
g541
g12
I3
tp1898
g483
(g93
S'\x1br\xf3\x9dg\xf9\xe6?'
p1899
tp1900
Rp1901
s(g541
g15
I1
g541
g14
I4
tp1902
g483
(g93
S'9o\xfd\xe1ww\xcb?'
p1903
tp1904
Rp1905
s(g541
g15
I0
g541
g15
I2
tp1906
g483
(g93
S'\x90x\xe3\x83*\xf1\xec?'
p1907
tp1908
Rp1909
s(g541
g15
I0
g541
g16
I0
tp1910
g483
(g93
S'\xc8\xda\xd7\\_\x8b\xe1?'
p1911
tp1912
Rp1913
s(g541
g17
I0
g541
g16
I2
tp1914
g483
(g93
S'\x99\x18\xe0j\xefN\xe0?'
p1915
tp1916
Rp1917
s(g541
g12
I3
g541
g14
I2
tp1918
g483
(g93
S'\xe7\x157\xb8B\x04\xeb?'
p1919
tp1920
Rp1921
s(g541
g12
I4
g541
g12
I0
tp1922
g483
(g93
S'\xb5\\M\xfa\xa3l\xea?'
p1923
tp1924
Rp1925
s(g541
g13
I1
g541
g17
I1
tp1926
g483
(g93
S'^Ed\xcd\xbb}\x06@'
p1927
tp1928
Rp1929
s(g541
g17
I0
g541
g16
I0
tp1930
g483
(g93
S'\x99\x18\xe0j\xefN\xe0?'
p1931
tp1932
Rp1933
s(g541
g12
I0
g541
g13
I1
tp1934
g483
(g93
S"'\xd9\x0f\xa5h\xd2\xdd?"
p1935
tp1936
Rp1937
s(g541
g17
I4
g541
g12
I2
tp1938
g483
(g93
S'\xef\n\xa3\xda\xdek\xe8?'
p1939
tp1940
Rp1941
s(g541
g17
I3
g541
g17
I2
tp1942
g483
(g93
S'\xb9\x94\xaaS\xbfr\x12@'
p1943
tp1944
Rp1945
s(g541
g16
I0
g541
g15
I0
tp1946
g483
(g93
S'\x83\x8c\x93\r0\xa6\xdd?'
p1947
tp1948
Rp1949
s(g541
g16
I3
g541
g15
I2
tp1950
g483
(g93
S'\xce2\xd6,\x8e\xef\xf7?'
p1951
tp1952
Rp1953
s(g541
g17
I4
g541
g16
I2
tp1954
g483
(g93
S'\xa14zrb\xe2\x00@'
p1955
tp1956
Rp1957
s(g541
g12
I1
g541
g17
I2
tp1958
g483
(g93
S'h\x94\xca\xcd\xf4#\x05@'
p1959
tp1960
Rp1961
s(g541
g14
I1
g541
g16
I2
tp1962
g483
(g93
S'\xfa\x97\xef\x11\x92\x80\xf4?'
p1963
tp1964
Rp1965
s(g541
g12
I4
g541
g15
I1
tp1966
g483
(g93
S'Z\xe6\xd0\x9f\xb4;\xd1?'
p1967
tp1968
Rp1969
s(g541
g14
I4
g541
g17
I3
tp1970
g483
(g93
S'u\xda\xb1\r\x94r\r@'
p1971
tp1972
Rp1973
s(g541
g13
I3
g541
g12
I1
tp1974
g483
(g93
S'0\x89\n\x83\xed\x8e\xe6?'
p1975
tp1976
Rp1977
s(g541
g17
I4
g541
g12
I0
tp1978
g483
(g93
S'\x91\x0c\x90\x9d[\xdc\xca?'
p1979
tp1980
Rp1981
s(g541
g12
I1
g541
g16
I2
tp1982
g483
(g93
S'\x1f\x7f\x1b\xcb\xb0\xb1\xf3?'
p1983
tp1984
Rp1985
s(g541
g14
I0
g541
g14
I4
tp1986
g483
(g93
S'\xf0\x0fU\xce\xe2/\xeb?'
p1987
tp1988
Rp1989
s(g541
g12
I3
g541
g17
I3
tp1990
g483
(g93
S'\xed{Y%\x10w\x13@'
p1991
tp1992
Rp1993
s(g541
g13
I0
g541
g14
I1
tp1994
g483
(g93
S'vN^\x14\xfb\xb7\xdc?'
p1995
tp1996
Rp1997
s(g541
g17
I1
g541
g13
I2
tp1998
g483
(g93
S'\x9d\xe9yd\xe8\xa3\xf1?'
p1999
tp2000
Rp2001
s(g541
g17
I0
g541
g13
I3
tp2002
g483
(g93
S'd\x8d\xf62\xb34\xdf?'
p2003
tp2004
Rp2005
s(g541
g13
I1
g541
g14
I4
tp2006
g483
(g93
S'\x0e\x95g\xd8\\H\xf6?'
p2007
tp2008
Rp2009
s(g541
g12
I0
g541
g17
I0
tp2010
g483
(g93
S'7)\xeek\xf5\x89\xf1?'
p2011
tp2012
Rp2013
s(g541
g16
I0
g541
g14
I3
tp2014
g483
(g93
S'o1v;\xb2H\xcf?'
p2015
tp2016
Rp2017
s(g541
g12
I2
g541
g16
I1
tp2018
g483
(g93
S'\x1f\x7f\x1b\xcb\xb0\xb1\xf3?'
p2019
tp2020
Rp2021
s(g541
g15
I0
g541
g17
I4
tp2022
g483
(g93
S'\xc3\xdf\xd1\xaa\xf0\xcb\xe1?'
p2023
tp2024
Rp2025
s(g541
g14
I2
g541
g14
I3
tp2026
g483
(g93
S'\x01ZU\xed\x18\xda\x06@'
p2027
tp2028
Rp2029
s(g541
g14
I4
g541
g12
I1
tp2030
g483
(g93
S'1-\x9e\x1c=\x99\xd0?'
p2031
tp2032
Rp2033
s(g541
g15
I0
g541
g17
I0
tp2034
g483
(g93
S'\xc3\xdf\xd1\xaa\xf0\xcb\xe1?'
p2035
tp2036
Rp2037
s(g541
g14
I1
g541
g12
I3
tp2038
g483
(g93
S'\xe7J\xbb\xfe\x14\xd0\xda?'
p2039
tp2040
Rp2041
s(g541
g16
I4
g541
g16
I4
tp2042
g483
(g93
S'\xae\xc5\r\x99g\xcc\x0f@'
p2043
tp2044
Rp2045
s(g541
g13
I2
g541
g16
I1
tp2046
g483
(g93
S'46\xda\xd3\x90`\xf2?'
p2047
tp2048
Rp2049
s(g541
g13
I4
g541
g17
I4
tp2050
g483
(g93
S'\xcc\xddW\xa2\xc04\x14@'
p2051
tp2052
Rp2053
s(g541
g13
I4
g541
g13
I1
tp2054
g483
(g93
S'\x18s\xe1\xb8\xdd\xf6\x11@'
p2055
tp2056
Rp2057
s(g541
g17
I0
g541
g17
I0
tp2058
g483
(g93
S'\xe7\x9a\x98\xdb\x06\xab\xf2?'
p2059
tp2060
Rp2061
s(g541
g12
I0
g541
g12
I3
tp2062
g483
(g93
S'\xb5\\M\xfa\xa3l\xea?'
p2063
tp2064
Rp2065
s(g541
g16
I2
g541
g13
I1
tp2066
g483
(g93
S'\x877\x1d\xc29|\xf2?'
p2067
tp2068
Rp2069
s(g541
g17
I2
g541
g13
I3
tp2070
g483
(g93
S'\xaf\xda\xc8\xe8h4\xf9?'
p2071
tp2072
Rp2073
s(g541
g12
I2
g541
g12
I2
tp2074
g483
(g93
S'`\xe5\xcf\xce5\xfa\x03@'
p2075
tp2076
Rp2077
s(g541
g17
I3
g541
g17
I3
tp2078
g483
(g93
S'\xd2#\xe2\x8a5\xf2\x16@'
p2079
tp2080
Rp2081
s(g541
g16
I3
g541
g14
I2
tp2082
g483
(g93
S'\x17\xc6\x19c;\xce\xea?'
p2083
tp2084
Rp2085
s(g541
g15
I0
g541
g14
I1
tp2086
g483
(g93
S'\xeb\xbd\xfd\xdf\x83\xb3\xc3?'
p2087
tp2088
Rp2089
s(g541
g15
I1
g541
g14
I2
tp2090
g483
(g93
S'\xa1\xb7\x0e|J\xbe\xc3?'
p2091
tp2092
Rp2093
s(g541
g17
I4
g541
g17
I0
tp2094
g483
(g93
S'\xe7\x9a\x98\xdb\x06\xab\xf2?'
p2095
tp2096
Rp2097
s(g541
g16
I2
g541
g14
I4
tp2098
g483
(g93
S'\x17\xc6\x19c;\xce\xea?'
p2099
tp2100
Rp2101
s(g541
g17
I1
g541
g17
I2
tp2102
g483
(g93
S'\x1f\x86\x14i\xb8\xb9\x07@'
p2103
tp2104
Rp2105
s(g541
g15
I2
g541
g13
I0
tp2106
g483
(g93
S';\xa7\xad@5\xa6\xc3?'
p2107
tp2108
Rp2109
s(g541
g14
I3
g541
g13
I1
tp2110
g483
(g93
S'?-\xb3\xab\xc3\xa3\xf5?'
p2111
tp2112
Rp2113
s(g541
g13
I3
g541
g17
I3
tp2114
g483
(g93
S'\x12\xf2\xcb\x91\xc8\xb0\x12@'
p2115
tp2116
Rp2117
s(g541
g14
I0
g541
g13
I4
tp2118
g483
(g93
S',\xc7\x8e9\xd7\xe3\xdb?'
p2119
tp2120
Rp2121
s(g541
g17
I0
g541
g14
I1
tp2122
g483
(g93
S'\x91\x16\xa7\xfd\xfb\xb7\xe2?'
p2123
tp2124
Rp2125
s(g541
g16
I0
g541
g16
I3
tp2126
g483
(g93
S'3\xf1\xce\xf7oP\xee?'
p2127
tp2128
Rp2129
s(g541
g14
I0
g541
g14
I0
tp2130
g483
(g93
S'\xf0\x0fU\xce\xe2/\xeb?'
p2131
tp2132
Rp2133
s(g541
g12
I0
g541
g16
I0
tp2134
g483
(g93
S'6\x94N\x14"\xfc\xe0?'
p2135
tp2136
Rp2137
s(g541
g15
I2
g541
g16
I4
tp2138
g483
(g93
S'\xd8\x90\xcc\xc9\xd0K\x01@'
p2139
tp2140
Rp2141
s(g541
g17
I1
g541
g13
I0
tp2142
g483
(g93
S'd\x8d\xf62\xb34\xdf?'
p2143
tp2144
Rp2145
s(g541
g17
I4
g541
g15
I0
tp2146
g483
(g93
S'{\xeb\xc8\xde\xef\xb5\xd1?'
p2147
tp2148
Rp2149
s(g541
g14
I1
g541
g12
I4
tp2150
g483
(g93
S'\xe7J\xbb\xfe\x14\xd0\xda?'
p2151
tp2152
Rp2153
s(g541
g14
I1
g541
g14
I3
tp2154
g483
(g93
S'~\x1a\xf8\xaa\x8f>\x01@'
p2155
tp2156
Rp2157
s(g541
g17
I3
g541
g13
I0
tp2158
g483
(g93
S'd\x8d\xf62\xb34\xdf?'
p2159
tp2160
Rp2161
s(g541
g12
I4
g541
g14
I0
tp2162
g483
(g93
S'f\x08\xd9\x01\xe9+\xc3?'
p2163
tp2164
Rp2165
s(g541
g12
I1
g541
g14
I3
tp2166
g483
(g93
S'\xed\x9f\xbaP\xb5`\xe0?'
p2167
tp2168
Rp2169
s(g541
g14
I1
g541
g13
I1
tp2170
g483
(g93
S'?-\xb3\xab\xc3\xa3\xf5?'
p2171
tp2172
Rp2173
s(g541
g13
I1
g541
g13
I1
tp2174
g483
(g93
S'\x18s\xe1\xb8\xdd\xf6\x11@'
p2175
tp2176
Rp2177
s(g541
g16
I3
g541
g17
I1
tp2178
g483
(g93
S'\xfa\xe7y\x92\xd5\x17\x02@'
p2179
tp2180
Rp2181
s(g541
g16
I1
g541
g14
I1
tp2182
g483
(g93
S'9\xa9\xfb\xf83P\xe1?'
p2183
tp2184
Rp2185
s(g541
g17
I2
g541
g17
I3
tp2186
g483
(g93
S'\xb9\x94\xaaS\xbfr\x12@'
p2187
tp2188
Rp2189
s(g541
g13
I4
g541
g16
I3
tp2190
g483
(g93
S'\x17\xdc\x8cQ\xbbA\x00@'
p2191
tp2192
Rp2193
s(g541
g13
I1
g541
g16
I3
tp2194
g483
(g93
S'\xf2Q\xb8\xa1\xa9\xab\xfd?'
p2195
tp2196
Rp2197
s(g541
g14
I0
g541
g17
I1
tp2198
g483
(g93
S'x$\xc4\xecH\xc6\xf8?'
p2199
tp2200
Rp2201
s(g541
g16
I2
g541
g12
I3
tp2202
g483
(g93
S'\xfc\x01?lD\xdb\xe3?'
p2203
tp2204
Rp2205
s(g541
g15
I2
g541
g12
I4
tp2206
g483
(g93
S'\xdc\x11\x83\xa4F\x05\xdc?'
p2207
tp2208
Rp2209
s(g541
g17
I0
g541
g17
I4
tp2210
g483
(g93
S'\xe7\x9a\x98\xdb\x06\xab\xf2?'
p2211
tp2212
Rp2213
s(g541
g16
I3
g541
g12
I3
tp2214
g483
(g93
S'\x1br\xf3\x9dg\xf9\xe6?'
p2215
tp2216
Rp2217
s(g541
g17
I1
g541
g15
I2
tp2218
g483
(g93
S'[^\xc07\x8e?\xe2?'
p2219
tp2220
Rp2221
s(g541
g15
I2
g541
g12
I2
tp2222
g483
(g93
S'X/\xb9JQ\xba\xd6?'
p2223
tp2224
Rp2225
s(g541
g14
I3
g541
g15
I2
tp2226
g483
(g93
S'C\x1b2U_I\xe8?'
p2227
tp2228
Rp2229
s(g541
g16
I1
g541
g14
I3
tp2230
g483
(g93
S'\xde;D\xed\xa8\xb2\xe1?'
p2231
tp2232
Rp2233
s(g541
g12
I4
g541
g17
I1
tp2234
g483
(g93
S'h\x94\xca\xcd\xf4#\x05@'
p2235
tp2236
Rp2237
s(g541
g14
I3
g541
g16
I3
tp2238
g483
(g93
S'\x02\xee\xd0\xceR\xbf\xf7?'
p2239
tp2240
Rp2241
s(g541
g13
I3
g541
g16
I1
tp2242
g483
(g93
S'46\xda\xd3\x90`\xf2?'
p2243
tp2244
Rp2245
s(g541
g14
I1
g541
g17
I2
tp2246
g483
(g93
S's\xf1_T=\x14\t@'
p2247
tp2248
Rp2249
s(g541
g13
I0
g541
g12
I1
tp2250
g483
(g93
S'R\xa4,\xaa<\x1f\xcf?'
p2251
tp2252
Rp2253
s(g541
g14
I2
g541
g17
I1
tp2254
g483
(g93
S'K(\x1cf\xd9\xd1\x04@'
p2255
tp2256
Rp2257
s(g541
g14
I0
g541
g13
I0
tp2258
g483
(g93
S',\xc7\x8e9\xd7\xe3\xdb?'
p2259
tp2260
Rp2261
s(g541
g16
I3
g541
g16
I3
tp2262
g483
(g93
S'\xec5}\x9c\xe2\xa3\n@'
p2263
tp2264
Rp2265
s(g541
g12
I0
g541
g16
I4
tp2266
g483
(g93
S'6\x94N\x14"\xfc\xe0?'
p2267
tp2268
Rp2269
s(g541
g14
I4
g541
g16
I1
tp2270
g483
(g93
S'\xfc\xca#zK\x96\xeb?'
p2271
tp2272
Rp2273
s(g541
g12
I1
g541
g12
I3
tp2274
g483
(g93
S'%\xe3H\xee3\x92\x01@'
p2275
tp2276
Rp2277
s(g541
g16
I1
g541
g12
I4
tp2278
g483
(g93
S'\xc3\xb6\xe5t\xfd\x9b\xd9?'
p2279
tp2280
Rp2281
s(g541
g17
I3
g541
g12
I0
tp2282
g483
(g93
S'\x91\x0c\x90\x9d[\xdc\xca?'
p2283
tp2284
Rp2285
s(g541
g12
I3
g541
g15
I2
tp2286
g483
(g93
S'\xf82\xa0\x13\xfc|\xf0?'
p2287
tp2288
Rp2289
s(g541
g17
I1
g541
g12
I3
tp2290
g483
(g93
S']\x8fvy20\xe0?'
p2291
tp2292
Rp2293
s(g541
g16
I1
g541
g17
I0
tp2294
g483
(g93
S'\xfa\xd9X5\xaa\xb1\xeb?'
p2295
tp2296
Rp2297
s(g541
g13
I1
g541
g12
I3
tp2298
g483
(g93
S'\xc9\xa1\x8bv`\xab\xec?'
p2299
tp2300
Rp2301
s(g541
g15
I1
g541
g13
I0
tp2302
g483
(g93
S';\xa7\xad@5\xa6\xc3?'
p2303
tp2304
Rp2305
s(g541
g13
I0
g541
g17
I2
tp2306
g483
(g93
S' \xfc\x900\xadC\xf5?'
p2307
tp2308
Rp2309
s(g541
g12
I4
g541
g14
I4
tp2310
g483
(g93
S'l\x90\xc6\xf7\xbc>\xef?'
p2311
tp2312
Rp2313
s(g541
g16
I4
g541
g13
I2
tp2314
g483
(g93
S'\xea\xee\x8c\x8b\xdd\xda\xf2?'
p2315
tp2316
Rp2317
s(g541
g12
I0
g541
g17
I2
tp2318
g483
(g93
S'7)\xeek\xf5\x89\xf1?'
p2319
tp2320
Rp2321
s(g541
g13
I4
g541
g17
I1
tp2322
g483
(g93
S'!\xa7\xe0~z\n\x08@'
p2323
tp2324
Rp2325
s(g541
g14
I2
g541
g12
I2
tp2326
g483
(g93
S'd\xa4\xcdI\x83a\xdb?'
p2327
tp2328
Rp2329
s(g541
g14
I0
g541
g16
I3
tp2330
g483
(g93
S'\xce\xbb*4\xe4a\xd8?'
p2331
tp2332
Rp2333
s(g541
g13
I0
g541
g16
I2
tp2334
g483
(g93
S'%\x085\xf5\xb7\xd0\xd6?'
p2335
tp2336
Rp2337
s(g541
g13
I2
g541
g17
I3
tp2338
g483
(g93
S'V\x06@\x81\xd0,\x11@'
p2339
tp2340
Rp2341
s(g541
g14
I2
g541
g13
I2
tp2342
g483
(g93
S'\x94k}_\xd9\xeb\xf6?'
p2343
tp2344
Rp2345
s(g541
g15
I0
g541
g12
I1
tp2346
g483
(g93
S'\xd2\x072\x9d\xc2\xd0\xab?'
p2347
tp2348
Rp2349
s(g541
g15
I1
g541
g17
I3
tp2350
g483
(g93
S'Vaf\x93\xc5\xf7\xf1?'
p2351
tp2352
Rp2353
s(g541
g17
I3
g541
g16
I1
tp2354
g483
(g93
S"#C^\x82'O\xf5?"
p2355
tp2356
Rp2357
s(g541
g14
I3
g541
g17
I1
tp2358
g483
(g93
S'K(\x1cf\xd9\xd1\x04@'
p2359
tp2360
Rp2361
s(g541
g12
I1
g541
g15
I2
tp2362
g483
(g93
S'\x9fO\x0e5\xc8\r\xe1?'
p2363
tp2364
Rp2365
s(g541
g13
I4
g541
g14
I0
tp2366
g483
(g93
S'vN^\x14\xfb\xb7\xdc?'
p2367
tp2368
Rp2369
s(g541
g16
I1
g541
g16
I1
tp2370
g483
(g93
S'\xfe$\xf8M\xa5s\xfd?'
p2371
tp2372
Rp2373
s(g541
g14
I0
g541
g12
I0
tp2374
g483
(g93
S'0\xba\xa9o\x15n\xb3?'
p2375
tp2376
Rp2377
s(g541
g16
I4
g541
g17
I3
tp2378
g483
(g93
S'4\xf1\x8b~\x9b~\x11@'
p2379
tp2380
Rp2381
s(g541
g17
I2
g541
g14
I2
tp2382
g483
(g93
S'\x97T\x91\xf1>\x0c\xf4?'
p2383
tp2384
Rp2385
s(g541
g16
I0
g541
g17
I1
tp2386
g483
(g93
S'\xfa\xd9X5\xaa\xb1\xeb?'
p2387
tp2388
Rp2389
s(g541
g17
I3
g541
g14
I4
tp2390
g483
(g93
S'\x99\xdc\xd4u\xdb?\xf6?'
p2391
tp2392
Rp2393
s(g541
g16
I2
g541
g15
I2
tp2394
g483
(g93
S'@\x0c\x7f\xbaT\xa4\xf2?'
p2395
tp2396
Rp2397
s(g541
g17
I3
g541
g13
I3
tp2398
g483
(g93
S'\x82\x03\xb1\x03\xc3m\xfb?'
p2399
tp2400
Rp2401
s(g541
g16
I0
g541
g12
I3
tp2402
g483
(g93
S'?\xa4\xe6h\x1e\x16\xc6?'
p2403
tp2404
Rp2405
s(g541
g16
I1
g541
g13
I4
tp2406
g483
(g93
S'dT\x8e\x16\x0c\xe6\xe6?'
p2407
tp2408
Rp2409
s(g541
g12
I3
g541
g16
I2
tp2410
g483
(g93
S'2/\xfa\xf2E\x8a\xfe?'
p2411
tp2412
Rp2413
s(g541
g14
I3
g541
g14
I0
tp2414
g483
(g93
S'\xf0\x0fU\xce\xe2/\xeb?'
p2415
tp2416
Rp2417
s(g541
g13
I3
g541
g14
I0
tp2418
g483
(g93
S'vN^\x14\xfb\xb7\xdc?'
p2419
tp2420
Rp2421
s(g541
g16
I1
g541
g12
I0
tp2422
g483
(g93
S'?\xa4\xe6h\x1e\x16\xc6?'
p2423
tp2424
Rp2425
s(g541
g15
I1
g541
g15
I0
tp2426
g483
(g93
S'\x90x\xe3\x83*\xf1\xec?'
p2427
tp2428
Rp2429
s(g541
g13
I2
g541
g13
I3
tp2430
g483
(g93
S'\xdce\xd7\x0bB\x9e\x1a@'
p2431
tp2432
Rp2433
s(g541
g16
I4
g541
g16
I3
tp2434
g483
(g93
S'\xec5}\x9c\xe2\xa3\n@'
p2435
tp2436
Rp2437
s(g541
g17
I1
g541
g13
I3
tp2438
g483
(g93
S'\x9d\xe9yd\xe8\xa3\xf1?'
p2439
tp2440
Rp2441
s(g541
g15
I2
g541
g14
I2
tp2442
g483
(g93
S'\xb8%\x00\xbf\x1b\x82\xe0?'
p2443
tp2444
Rp2445
s(g541
g14
I0
g541
g15
I1
tp2446
g483
(g93
S'\xe7\xbfb\xe1\xf3\xf2\xc9?'
p2447
tp2448
Rp2449
s(g541
g12
I0
g541
g15
I1
tp2450
g483
(g93
S'\xd6\r\x0fd\x16\x13\xc2?'
p2451
tp2452
Rp2453
s(g541
g17
I1
g541
g13
I4
tp2454
g483
(g93
S'\x9d\xe9yd\xe8\xa3\xf1?'
p2455
tp2456
Rp2457
s(g541
g15
I2
g541
g16
I2
tp2458
g483
(g93
S'\xc5ey\xc6\xe6\x0f\xf6?'
p2459
tp2460
Rp2461
s(g541
g13
I2
g541
g12
I4
tp2462
g483
(g93
S'\x04Q\xd8kG\xb7\xef?'
p2463
tp2464
Rp2465
s(g541
g12
I0
g541
g14
I3
tp2466
g483
(g93
S'f\x08\xd9\x01\xe9+\xc3?'
p2467
tp2468
Rp2469
s(g541
g16
I0
g541
g13
I1
tp2470
g483
(g93
S'\xafw&^\xbbm\xcc?'
p2471
tp2472
Rp2473
s(g541
g14
I4
g541
g14
I0
tp2474
g483
(g93
S'\xf0\x0fU\xce\xe2/\xeb?'
p2475
tp2476
Rp2477
s(g541
g17
I4
g541
g14
I2
tp2478
g483
(g93
S'\x97T\x91\xf1>\x0c\xf4?'
p2479
tp2480
Rp2481
s(g541
g12
I4
g541
g13
I1
tp2482
g483
(g93
S'\x00\xbb\x9a\xf7\xc6x\xfb?'
p2483
tp2484
Rp2485
s(g541
g12
I3
g541
g12
I3
tp2486
g483
(g93
S'\x8a`\x00\x961f\t@'
p2487
tp2488
Rp2489
s(g541
g16
I4
g541
g16
I1
tp2490
g483
(g93
S'\xfe$\xf8M\xa5s\xfd?'
p2491
tp2492
Rp2493
s(g541
g12
I4
g541
g16
I3
tp2494
g483
(g93
S'\x86@\xd2\xb1\xeb\xaa\x01@'
p2495
tp2496
Rp2497
s(g541
g17
I2
g541
g12
I2
tp2498
g483
(g93
S'\xef\n\xa3\xda\xdek\xe8?'
p2499
tp2500
Rp2501
s(g541
g13
I1
g541
g15
I2
tp2502
g483
(g93
S'\xb9-\x9a\xbc\xfcf\xf0?'
p2503
tp2504
Rp2505
s(g541
g12
I2
g541
g13
I3
tp2506
g483
(g93
S'\xd2\xa9\xf1j\x19d\xfe?'
p2507
tp2508
Rp2509
s(g541
g15
I2
g541
g17
I1
tp2510
g483
(g93
S'ZV\xa6\xfc9V\xf2?'
p2511
tp2512
Rp2513
s(g541
g16
I2
g541
g17
I2
tp2514
g483
(g93
S'\xa5\x7fhP\x0e\xac\x0c@'
p2515
tp2516
Rp2517
s(g541
g13
I0
g541
g13
I3
tp2518
g483
(g93
S'\xd8<\xd1P\xfeR\xf1?'
p2519
tp2520
Rp2521
s(g541
g13
I4
g541
g14
I4
tp2522
g483
(g93
S'T\x19\xf4d\xa3@\xfb?'
p2523
tp2524
Rp2525
s(g541
g12
I2
g541
g14
I1
tp2526
g483
(g93
S'XL\xca\xb9\xc3t\xea?'
p2527
tp2528
Rp2529
s(g541
g12
I0
g541
g14
I4
tp2530
g483
(g93
S'f\x08\xd9\x01\xe9+\xc3?'
p2531
tp2532
Rp2533
s(g541
g14
I2
g541
g16
I3
tp2534
g483
(g93
S'\xc0\xbe\xc7|Y\xe4\xf4?'
p2535
tp2536
Rp2537
s(g541
g14
I0
g541
g12
I4
tp2538
g483
(g93
S'0\xba\xa9o\x15n\xb3?'
p2539
tp2540
Rp2541
s(g541
g14
I3
g541
g15
I0
tp2542
g483
(g93
S'\xe7\xbfb\xe1\xf3\xf2\xc9?'
p2543
tp2544
Rp2545
s(g541
g13
I3
g541
g12
I4
tp2546
g483
(g93
S'\x1d\xf0,\xb7\xf9\xfb\xf1?'
p2547
tp2548
Rp2549
s(g541
g17
I1
g541
g14
I1
tp2550
g483
(g93
S'\xdf\xdfd\xf0<h\xed?'
p2551
tp2552
Rp2553
s(g541
g16
I1
g541
g14
I4
tp2554
g483
(g93
S'\xde;D\xed\xa8\xb2\xe1?'
p2555
tp2556
Rp2557
s(g541
g17
I3
g541
g14
I0
tp2558
g483
(g93
S'\x91\x16\xa7\xfd\xfb\xb7\xe2?'
p2559
tp2560
Rp2561
s(g541
g16
I1
g541
g15
I2
tp2562
g483
(g93
S'\xd4C\x97\x83\x95_\xea?'
p2563
tp2564
Rp2565
s(g541
g15
I1
g541
g12
I0
tp2566
g483
(g93
S'\xd2\x072\x9d\xc2\xd0\xab?'
p2567
tp2568
Rp2569
s(g541
g13
I3
g541
g13
I0
tp2570
g483
(g93
S'\xd8<\xd1P\xfeR\xf1?'
p2571
tp2572
Rp2573
s(g541
g12
I1
g541
g13
I1
tp2574
g483
(g93
S'\x0e\xd0\x1a\xcaY\xec\xf2?'
p2575
tp2576
Rp2577
s(g541
g16
I1
g541
g13
I0
tp2578
g483
(g93
S'\xafw&^\xbbm\xcc?'
p2579
tp2580
Rp2581
s(g541
g14
I3
g541
g14
I4
tp2582
g483
(g93
S'\x9b\xfe\xcc\xcc*\xb2\t@'
p2583
tp2584
Rp2585
s(g541
g13
I3
g541
g14
I4
tp2586
g483
(g93
S'\xd7\x82\x81\xbajm\xf9?'
p2587
tp2588
Rp2589
s(g541
g13
I4
g541
g15
I1
tp2590
g483
(g93
S'aD5A\\\xd2\xd3?'
p2591
tp2592
Rp2593
s(g541
g14
I4
g541
g12
I4
tp2594
g483
(g93
S'4\xae\x0f\xe1\x95\xaa\xdf?'
p2595
tp2596
Rp2597
s(g541
g12
I2
g541
g17
I0
tp2598
g483
(g93
S'7)\xeek\xf5\x89\xf1?'
p2599
tp2600
Rp2601
s(g541
g16
I4
g541
g12
I2
tp2602
g483
(g93
S'\xfc\x01?lD\xdb\xe3?'
p2603
tp2604
Rp2605
s(g541
g16
I3
g541
g13
I2
tp2606
g483
(g93
S'\xea\xee\x8c\x8b\xdd\xda\xf2?'
p2607
tp2608
Rp2609
s(g541
g15
I2
g541
g12
I1
tp2610
g483
(g93
S'\xfd\x08\x8a2\xa1>\xca?'
p2611
tp2612
Rp2613
s(g541
g14
I4
g541
g13
I0
tp2614
g483
(g93
S',\xc7\x8e9\xd7\xe3\xdb?'
p2615
tp2616
Rp2617
s(g541
g15
I0
g541
g16
I1
tp2618
g483
(g93
S'\xc8\xda\xd7\\_\x8b\xe1?'
p2619
tp2620
Rp2621
s(g541
g12
I3
g541
g14
I3
tp2622
g483
(g93
S'*\xd3\xfe\xd7\x7f!\xed?'
p2623
tp2624
Rp2625
s(g541
g12
I4
g541
g12
I3
tp2626
g483
(g93
S'\x8a`\x00\x961f\t@'
p2627
tp2628
Rp2629
s(g541
g14
I4
g541
g14
I4
tp2630
g483
(g93
S'3\xa3D\xac<\x8a\x0c@'
p2631
tp2632
Rp2633
s(g541
g15
I0
g541
g13
I3
tp2634
g483
(g93
S';\xa7\xad@5\xa6\xc3?'
p2635
tp2636
Rp2637
s(g541
g13
I4
g541
g13
I4
tp2638
g483
(g93
S',\x0b\xdek\xe2S\x1f@'
p2639
tp2640
Rp2641
s(g541
g13
I1
g541
g17
I2
tp2642
g483
(g93
S'e\x98\x08C\x11Q\x10@'
p2643
tp2644
Rp2645
s(g541
g12
I3
g541
g13
I1
tp2646
g483
(g93
S'\x00\xbb\x9a\xf7\xc6x\xfb?'
p2647
tp2648
Rp2649
s(g541
g13
I2
g541
g15
I2
tp2650
g483
(g93
S"'\xfe|\xff\x18w\xf0?"
p2651
tp2652
Rp2653
s(g541
g13
I4
g541
g12
I0
tp2654
g483
(g93
S'R\xa4,\xaa<\x1f\xcf?'
p2655
tp2656
Rp2657
s(g541
g17
I0
g541
g16
I1
tp2658
g483
(g93
S'\x99\x18\xe0j\xefN\xe0?'
p2659
tp2660
Rp2661
s(g541
g16
I3
g541
g12
I1
tp2662
g483
(g93
S'\xc3\xb6\xe5t\xfd\x9b\xd9?'
p2663
tp2664
Rp2665
s(g541
g16
I0
g541
g15
I1
tp2666
g483
(g93
S'\x83\x8c\x93\r0\xa6\xdd?'
p2667
tp2668
Rp2669
s(g541
g16
I3
g541
g15
I1
tp2670
g483
(g93
S'`\xd8\xce\xd1h\xbb\xe9?'
p2671
tp2672
Rp2673
s(g541
g14
I3
g541
g13
I4
tp2674
g483
(g93
S'>\x99\xb0\xc0\x96\xb1\xf8?'
p2675
tp2676
Rp2677
s(g541
g13
I3
g541
g17
I4
tp2678
g483
(g93
S'\x12\xf2\xcb\x91\xc8\xb0\x12@'
p2679
tp2680
Rp2681
s(g541
g14
I1
g541
g16
I3
tp2682
g483
(g93
S'\xfa\x97\xef\x11\x92\x80\xf4?'
p2683
tp2684
Rp2685
s(g541
g17
I3
g541
g15
I0
tp2686
g483
(g93
S'{\xeb\xc8\xde\xef\xb5\xd1?'
p2687
tp2688
Rp2689
s(g541
g14
I3
g541
g12
I0
tp2690
g483
(g93
S'0\xba\xa9o\x15n\xb3?'
p2691
tp2692
Rp2693
s(g541
g13
I3
g541
g12
I0
tp2694
g483
(g93
S'R\xa4,\xaa<\x1f\xcf?'
p2695
tp2696
Rp2697
s(g541
g12
I1
g541
g16
I3
tp2698
g483
(g93
S'\x1f\x7f\x1b\xcb\xb0\xb1\xf3?'
p2699
tp2700
Rp2701
s(g541
g14
I1
g541
g15
I1
tp2702
g483
(g93
S'\x82\xe14R%\x01\xca?'
p2703
tp2704
Rp2705
s(g541
g12
I3
g541
g17
I2
tp2706
g483
(g93
S'\xca\xb1\xd3Td\xe4\x0f@'
p2707
tp2708
Rp2709
s(g541
g15
I1
g541
g12
I4
tp2710
g483
(g93
S'\xbb\xce\x1d~M\x85\xba?'
p2711
tp2712
Rp2713
s(g541
g13
I3
g541
g13
I4
tp2714
g483
(g93
S'\x85\xb8\xda;\x12\xf9\x1c@'
p2715
tp2716
Rp2717
s(g541
g17
I0
g541
g13
I2
tp2718
g483
(g93
S'd\x8d\xf62\xb34\xdf?'
p2719
tp2720
Rp2721
s(g541
g13
I1
g541
g14
I3
tp2722
g483
(g93
S'\x0e\x95g\xd8\\H\xf6?'
p2723
tp2724
Rp2725
s(g541
g13
I0
g541
g15
I2
tp2726
g483
(g93
S'\xff\xec\xf5\xf9G\xa6\xca?'
p2727
tp2728
Rp2729
s(g541
g16
I0
g541
g14
I2
tp2730
g483
(g93
S'o1v;\xb2H\xcf?'
p2731
tp2732
Rp2733
s(g541
g14
I4
g541
g17
I4
tp2734
g483
(g93
S'4A\xf1\xb6C.\x10@'
p2735
tp2736
Rp2737
s(g541
g12
I2
g541
g16
I0
tp2738
g483
(g93
S'6\x94N\x14"\xfc\xe0?'
p2739
tp2740
Rp2741
s(g541
g17
I0
g541
g12
I2
tp2742
g483
(g93
S'\x91\x0c\x90\x9d[\xdc\xca?'
p2743
tp2744
Rp2745
s(g541
g14
I2
g541
g14
I2
tp2746
g483
(g93
S'\x01ZU\xed\x18\xda\x06@'
p2747
tp2748
Rp2749
s(g541
g17
I3
g541
g12
I4
tp2750
g483
(g93
S'U\xba\xab\xb4\x8b\xcf\xed?'
p2751
tp2752
Rp2753
s(g541
g14
I2
g541
g15
I1
tp2754
g483
(g93
S'\x82\xe14R%\x01\xca?'
p2755
tp2756
Rp2757
s(g541
g14
I4
g541
g12
I0
tp2758
g483
(g93
S'0\xba\xa9o\x15n\xb3?'
p2759
tp2760
Rp2761
s(g541
g12
I2
g541
g17
I4
tp2762
g483
(g93
S'\xca\xb1\xd3Td\xe4\x0f@'
p2763
tp2764
Rp2765
s(g541
g15
I1
g541
g13
I2
tp2766
g483
(g93
S'\xe4\xde\xeb\xe4\x04\xfb\xc3?'
p2767
tp2768
Rp2769
s(g541
g14
I4
g541
g13
I4
tp2770
g483
(g93
S'\xe9\xc6\xe3!Tw\xfa?'
p2771
tp2772
Rp2773
s(g541
g13
I4
g541
g16
I4
tp2774
g483
(g93
S'\x8c\xbf\x07\xe5\xada\x01@'
p2775
tp2776
Rp2777
s(g541
g13
I2
g541
g16
I2
tp2778
g483
(g93
S'D\xf1#|\x91C\xfe?'
p2779
tp2780
Rp2781
s(g541
g13
I4
g541
g13
I0
tp2782
g483
(g93
S'\xd8<\xd1P\xfeR\xf1?'
p2783
tp2784
Rp2785
s(g541
g12
I0
g541
g12
I2
tp2786
g483
(g93
S'\xb5\\M\xfa\xa3l\xea?'
p2787
tp2788
Rp2789
s(g541
g17
I2
g541
g13
I2
tp2790
g483
(g93
S'\xaf\xda\xc8\xe8h4\xf9?'
p2791
tp2792
Rp2793
s(g541
g13
I4
g541
g12
I4
tp2794
g483
(g93
S'\xb8\xb7m\xb8O\x1c\xf4?'
p2795
tp2796
Rp2797
s(g541
g12
I2
g541
g12
I1
tp2798
g483
(g93
S'%\xe3H\xee3\x92\x01@'
p2799
tp2800
Rp2801
s(g541
g12
I0
g541
g13
I2
tp2802
g483
(g93
S"'\xd9\x0f\xa5h\xd2\xdd?"
p2803
tp2804
Rp2805
s(g541
g16
I3
g541
g14
I3
tp2806
g483
(g93
S'\xd2\xd0\xae\xc8\x1cx\xee?'
p2807
tp2808
Rp2809
s(g541
g14
I3
g541
g16
I4
tp2810
g483
(g93
S'\x02\xee\xd0\xceR\xbf\xf7?'
p2811
tp2812
Rp2813
s(g541
g13
I3
g541
g16
I4
tp2814
g483
(g93
S'\x17\xdc\x8cQ\xbbA\x00@'
p2815
tp2816
Rp2817
s(g541
g17
I4
g541
g13
I4
tp2818
g483
(g93
S'U,\x99\x1e\x1d\xa7\xfd?'
p2819
tp2820
Rp2821
s(g541
g16
I2
g541
g16
I1
tp2822
g483
(g93
S'\xfe$\xf8M\xa5s\xfd?'
p2823
tp2824
Rp2825
s(g541
g17
I1
g541
g17
I3
tp2826
g483
(g93
S'\x1f\x86\x14i\xb8\xb9\x07@'
p2827
tp2828
Rp2829
s(g541
g14
I3
g541
g13
I0
tp2830
g483
(g93
S',\xc7\x8e9\xd7\xe3\xdb?'
p2831
tp2832
Rp2833
s(g541
g13
I3
g541
g17
I0
tp2834
g483
(g93
S' \xfc\x900\xadC\xf5?'
p2835
tp2836
Rp2837
s(g541
g12
I1
g541
g17
I1
tp2838
g483
(g93
S'h\x94\xca\xcd\xf4#\x05@'
p2839
tp2840
Rp2841
s(g541
g12
I4
g541
g15
I2
tp2842
g483
(g93
S'H\xb5\xbcZ65\xf2?'
p2843
tp2844
Rp2845
s(g541
g17
I1
g541
g12
I2
tp2846
g483
(g93
S']\x8fvy20\xe0?'
p2847
tp2848
Rp2849
s(g541
g14
I3
g541
g12
I4
tp2850
g483
(g93
S'L\xa9n\x95\x0c\x86\xdd?'
p2851
tp2852
Rp2853
s(g541
g17
I0
g541
g14
I2
tp2854
g483
(g93
S'\x91\x16\xa7\xfd\xfb\xb7\xe2?'
p2855
tp2856
Rp2857
s(g541
g15
I2
g541
g15
I2
tp2858
g483
(g93
S'~\xfa\xf1_.w\x04@'
p2859
tp2860
Rp2861
s(g541
g14
I0
g541
g14
I3
tp2862
g483
(g93
S'\xf0\x0fU\xce\xe2/\xeb?'
p2863
tp2864
Rp2865
s(g541
g13
I0
g541
g14
I2
tp2866
g483
(g93
S'vN^\x14\xfb\xb7\xdc?'
p2867
tp2868
Rp2869
s(g541
g16
I0
g541
g13
I2
tp2870
g483
(g93
S'\xafw&^\xbbm\xcc?'
p2871
tp2872
Rp2873
s(g541
g14
I4
g541
g16
I4
tp2874
g483
(g93
S'E\x1d\xda L\x9a\xfa?'
p2875
tp2876
Rp2877
s(g541
g12
I2
g541
g15
I0
tp2878
g483
(g93
S'\xd6\r\x0fd\x16\x13\xc2?'
p2879
tp2880
Rp2881
s(g541
g14
I2
g541
g15
I2
tp2882
g483
(g93
S'\x17%\r\xdfR\xbe\xe5?'
p2883
tp2884
Rp2885
s(g541
g14
I4
g541
g17
I0
tp2886
g483
(g93
S'x$\xc4\xecH\xc6\xf8?'
p2887
tp2888
Rp2889
s(g541
g12
I2
g541
g16
I4
tp2890
g483
(g93
S'2/\xfa\xf2E\x8a\xfe?'
p2891
tp2892
Rp2893
s(g541
g17
I3
g541
g13
I1
tp2894
g483
(g93
S'\x1d\xb0\x18B\xed\xf1\xf7?'
p2895
tp2896
Rp2897
s(g541
g15
I1
g541
g15
I2
tp2898
g483
(g93
S'\xa6X\x1d25<\xf8?'
p2899
tp2900
Rp2901
s(g541
g12
I1
g541
g14
I0
tp2902
g483
(g93
S'f\x08\xd9\x01\xe9+\xc3?'
p2903
tp2904
Rp2905
s(g541
g14
I1
g541
g13
I0
tp2906
g483
(g93
S',\xc7\x8e9\xd7\xe3\xdb?'
p2907
tp2908
Rp2909
s(g541
g17
I1
g541
g13
I1
tp2910
g483
(g93
S'\x05?\xc3\xda\xca\x80\xf0?'
p2911
tp2912
Rp2913
s(g541
g16
I1
g541
g17
I2
tp2914
g483
(g93
S'\xfa\xe7y\x92\xd5\x17\x02@'
p2915
tp2916
Rp2917
s(g541
g17
I2
g541
g17
I2
tp2918
g483
(g93
S'\xb9\x94\xaaS\xbfr\x12@'
p2919
tp2920
Rp2921
s(g541
g13
I4
g541
g16
I0
tp2922
g483
(g93
S'%\x085\xf5\xb7\xd0\xd6?'
p2923
tp2924
Rp2925
s(g541
g13
I1
g541
g16
I2
tp2926
g483
(g93
S'\xf2Q\xb8\xa1\xa9\xab\xfd?'
p2927
tp2928
Rp2929
s(g541
g16
I2
g541
g12
I2
tp2930
g483
(g93
S'\xfc\x01?lD\xdb\xe3?'
p2931
tp2932
Rp2933
s(g541
g17
I2
g541
g16
I2
tp2934
g483
(g93
S'\xa14zrb\xe2\x00@'
p2935
tp2936
Rp2937
s(g541
g17
I0
g541
g17
I3
tp2938
g483
(g93
S'\xe7\x9a\x98\xdb\x06\xab\xf2?'
p2939
tp2940
Rp2941
s(g541
g16
I2
g541
g13
I2
tp2942
g483
(g93
S'\xea\xee\x8c\x8b\xdd\xda\xf2?'
p2943
tp2944
Rp2945
s(g541
g14
I3
g541
g17
I4
tp2946
g483
(g93
S'u\xda\xb1\r\x94r\r@'
p2947
tp2948
Rp2949
s(g541
g13
I4
g541
g17
I0
tp2950
g483
(g93
S' \xfc\x900\xadC\xf5?'
p2951
tp2952
Rp2953
s(g541
g16
I2
g541
g14
I1
tp2954
g483
(g93
S'\xfd\xca\x95\xc05N\xea?'
p2955
tp2956
Rp2957
s(g541
g17
I3
g541
g17
I0
tp2958
g483
(g93
S'\xe7\x9a\x98\xdb\x06\xab\xf2?'
p2959
tp2960
Rp2961
s(g541
g12
I4
g541
g17
I2
tp2962
g483
(g93
S'\xca\xb1\xd3Td\xe4\x0f@'
p2963
tp2964
Rp2965
s(g541
g15
I0
g541
g14
I2
tp2966
g483
(g93
S'\xeb\xbd\xfd\xdf\x83\xb3\xc3?'
p2967
tp2968
Rp2969
s(g541
g17
I1
g541
g14
I4
tp2970
g483
(g93
S'\xc2\xf1\xb1\xf3\rv\xef?'
p2971
tp2972
Rp2973
s(g541
g14
I3
g541
g16
I0
tp2974
g483
(g93
S'\xce\xbb*4\xe4a\xd8?'
p2975
tp2976
Rp2977
s(g541
g13
I3
g541
g16
I0
tp2978
g483
(g93
S'%\x085\xf5\xb7\xd0\xd6?'
p2979
tp2980
Rp2981
s(g541
g13
I0
g541
g16
I4
tp2982
g483
(g93
S'%\x085\xf5\xb7\xd0\xd6?'
p2983
tp2984
Rp2985
s(g541
g14
I1
g541
g17
I1
tp2986
g483
(g93
S'`\xa2\xf1\x91\xe2u\x03@'
p2987
tp2988
Rp2989
s(g541
g15
I2
g541
g17
I3
tp2990
g483
(g93
S'\xe1\xbb\x9f!l\x0e\x02@'
p2991
tp2992
Rp2993
s(g541
g13
I0
g541
g12
I2
tp2994
g483
(g93
S'R\xa4,\xaa<\x1f\xcf?'
p2995
tp2996
Rp2997
s(g541
g14
I2
g541
g17
I2
tp2998
g483
(g93
S'\x832\x81\xad\xa0\x88\n@'
p2999
tp3000
Rp3001
s(g541
g14
I0
g541
g13
I1
tp3002
g483
(g93
S',\xc7\x8e9\xd7\xe3\xdb?'
p3003
tp3004
Rp3005
s(g541
g15
I2
g541
g13
I4
tp3006
g483
(g93
S'\x0bNd<\xad\xe7\xec?'
p3007
tp3008
Rp3009
s(g541
g16
I3
g541
g16
I0
tp3010
g483
(g93
S'3\xf1\xce\xf7oP\xee?'
p3011
tp3012
Rp3013
s(g541
g12
I0
g541
g16
I3
tp3014
g483
(g93
S'6\x94N\x14"\xfc\xe0?'
p3015
tp3016
Rp3017
s(g541
g16
I1
g541
g15
I0
tp3018
g483
(g93
S'\x83\x8c\x93\r0\xa6\xdd?'
p3019
tp3020
Rp3021
s(g541
g14
I4
g541
g16
I0
tp3022
g483
(g93
S'\xce\xbb*4\xe4a\xd8?'
p3023
tp3024
Rp3025
s(g541
g17
I3
g541
g12
I3
tp3026
g483
(g93
S'U\xba\xab\xb4\x8b\xcf\xed?'
p3027
tp3028
Rp3029
s(g541
g15
I1
g541
g16
I2
tp3030
g483
(g93
S'\x92\x04T^B\xec\xe1?'
p3031
tp3032
Rp3033
s(g541
g15
I2
g541
g16
I0
tp3034
g483
(g93
S'\xc8\xda\xd7\\_\x8b\xe1?'
p3035
tp3036
Rp3037
s(g541
g14
I1
g541
g14
I0
tp3038
g483
(g93
S'\xf0\x0fU\xce\xe2/\xeb?'
p3039
tp3040
Rp3041
s(g541
g13
I1
g541
g12
I2
tp3042
g483
(g93
S'\xc9\xa1\x8bv`\xab\xec?'
p3043
tp3044
Rp3045
s(g541
g16
I3
g541
g17
I2
tp3046
g483
(g93
S'\xa5\x7fhP\x0e\xac\x0c@'
p3047
tp3048
Rp3049
s(g541
g12
I4
g541
g14
I3
tp3050
g483
(g93
S'*\xd3\xfe\xd7\x7f!\xed?'
p3051
tp3052
Rp3053
s(g541
g16
I4
g541
g13
I3
tp3054
g483
(g93
S'\xe7\xfb4c\xa8A\xf4?'
p3055
tp3056
Rp3057
s(g541
g12
I1
g541
g14
I4
tp3058
g483
(g93
S'\xed\x9f\xbaP\xb5`\xe0?'
p3059
tp3060
Rp3061
s(g541
g14
I1
g541
g13
I4
tp3062
g483
(g93
S'?-\xb3\xab\xc3\xa3\xf5?'
p3063
tp3064
Rp3065
s(g541
g13
I1
g541
g13
I2
tp3066
g483
(g93
S'\x18s\xe1\xb8\xdd\xf6\x11@'
p3067
tp3068
Rp3069
s(g541
g14
I0
g541
g16
I2
tp3070
g483
(g93
S'\xce\xbb*4\xe4a\xd8?'
p3071
tp3072
Rp3073
s(g541
g13
I0
g541
g16
I3
tp3074
g483
(g93
S'%\x085\xf5\xb7\xd0\xd6?'
p3075
tp3076
Rp3077
s(g541
g15
I2
g541
g12
I3
tp3078
g483
(g93
S'\x9a \x9e\xf7\xcb_\xd9?'
p3079
tp3080
Rp3081
s(g541
g13
I2
g541
g17
I2
tp3082
g483
(g93
S'V\x06@\x81\xd0,\x11@'
p3083
tp3084
Rp3085
s(g541
g16
I4
g541
g14
I1
tp3086
g483
(g93
S'\xfd\xca\x95\xc05N\xea?'
p3087
tp3088
Rp3089
s(g541
g15
I2
g541
g13
I2
tp3090
g483
(g93
S'\xfe\xa5k\x92\xc1G\xe8?'
p3091
tp3092
Rp3093
s(g541
g14
I2
g541
g13
I3
tp3094
g483
(g93
S'\x94k}_\xd9\xeb\xf6?'
p3095
tp3096
Rp3097
s(g541
g14
I0
g541
g17
I2
tp3098
g483
(g93
S'x$\xc4\xecH\xc6\xf8?'
p3099
tp3100
Rp3101
s(g541
g15
I0
g541
g12
I2
tp3102
g483
(g93
S'\xd2\x072\x9d\xc2\xd0\xab?'
p3103
tp3104
Rp3105
s(g541
g15
I1
g541
g17
I4
tp3106
g483
(g93
S'Vaf\x93\xc5\xf7\xf1?'
p3107
tp3108
Rp3109
s(g541
g17
I3
g541
g16
I0
tp3110
g483
(g93
S'\x99\x18\xe0j\xefN\xe0?'
p3111
tp3112
Rp3113
s(g541
g14
I3
g541
g17
I0
tp3114
g483
(g93
S'x$\xc4\xecH\xc6\xf8?'
p3115
tp3116
Rp3117
s(g541
g13
I3
g541
g15
I0
tp3118
g483
(g93
S'\xff\xec\xf5\xf9G\xa6\xca?'
p3119
tp3120
Rp3121
s(g541
g17
I2
g541
g16
I1
tp3122
g483
(g93
S"#C^\x82'O\xf5?"
p3123
tp3124
Rp3125
s(g541
g12
I1
g541
g15
I1
tp3126
g483
(g93
S'1\xba\xbd\x06\x97\xb5\xc4?'
p3127
tp3128
Rp3129
s(g541
g13
I4
g541
g14
I1
tp3130
g483
(g93
S'\x0e\x95g\xd8\\H\xf6?'
p3131
tp3132
Rp3133
s(g541
g12
I2
g541
g14
I4
tp3134
g483
(g93
S'\xe7\x157\xb8B\x04\xeb?'
p3135
tp3136
Rp3137
s(g541
g16
I4
g541
g17
I0
tp3138
g483
(g93
S'\xfa\xd9X5\xaa\xb1\xeb?'
p3139
tp3140
Rp3141
s(g541
g17
I2
g541
g14
I3
tp3142
g483
(g93
S'\x97T\x91\xf1>\x0c\xf4?'
p3143
tp3144
Rp3145
s(g541
g16
I3
g541
g17
I0
tp3146
g483
(g93
S'\xfa\xd9X5\xaa\xb1\xeb?'
p3147
tp3148
Rp3149
s(g541
g16
I0
g541
g12
I2
tp3150
g483
(g93
S'?\xa4\xe6h\x1e\x16\xc6?'
p3151
tp3152
Rp3153
s(g541
g14
I4
g541
g15
I0
tp3154
g483
(g93
S'\xe7\xbfb\xe1\xf3\xf2\xc9?'
p3155
tp3156
Rp3157
s(g541
g12
I1
g541
g13
I4
tp3158
g483
(g93
S'\xa86\xff\xb3\xae\x9d\xf5?'
p3159
tp3160
Rp3161
s(g541
g12
I3
g541
g16
I3
tp3162
g483
(g93
S'\x86@\xd2\xb1\xeb\xaa\x01@'
p3163
tp3164
Rp3165
s(g541
g16
I3
g541
g16
I4
tp3166
g483
(g93
S'\xec5}\x9c\xe2\xa3\n@'
p3167
tp3168
Rp3169
s(g541
g14
I3
g541
g14
I1
tp3170
g483
(g93
S'~\x1a\xf8\xaa\x8f>\x01@'
p3171
tp3172
Rp3173
s(g541
g13
I3
g541
g14
I3
tp3174
g483
(g93
S'\xd7\x82\x81\xbajm\xf9?'
p3175
tp3176
Rp3177
s(g541
g12
I1
g541
g12
I0
tp3178
g483
(g93
S'\xb5\\M\xfa\xa3l\xea?'
p3179
tp3180
Rp3181
s(g541
g16
I1
g541
g12
I1
tp3182
g483
(g93
S'\xc3\xb6\xe5t\xfd\x9b\xd9?'
p3183
tp3184
Rp3185
s(g541
g12
I3
g541
g15
I1
tp3186
g483
(g93
S'Z\xe6\xd0\x9f\xb4;\xd1?'
p3187
tp3188
Rp3189
s(g541
g13
I2
g541
g13
I2
tp3190
g483
(g93
S'\xdce\xd7\x0bB\x9e\x1a@'
p3191
tp3192
Rp3193
s(g541
g14
I1
g541
g14
I4
tp3194
g483
(g93
S'~\x1a\xf8\xaa\x8f>\x01@'
p3195
tp3196
Rp3197
s(g541
g15
I2
g541
g14
I3
tp3198
g483
(g93
S'\x9e\xd3{\x18gp\xe2?'
p3199
tp3200
Rp3201
s(g541
g14
I0
g541
g15
I2
tp3202
g483
(g93
S'\xe7\xbfb\xe1\xf3\xf2\xc9?'
p3203
tp3204
Rp3205
s(g541
g13
I0
g541
g17
I1
tp3206
g483
(g93
S' \xfc\x900\xadC\xf5?'
p3207
tp3208
Rp3209
s(g541
g15
I0
g541
g15
I1
tp3210
g483
(g93
S'\x90x\xe3\x83*\xf1\xec?'
p3211
tp3212
Rp3213
s(g541
g13
I2
g541
g12
I2
tp3214
g483
(g93
S'\x04Q\xd8kG\xb7\xef?'
p3215
tp3216
Rp3217
s(g541
g14
I2
g541
g12
I1
tp3218
g483
(g93
S'1-\x9e\x1c=\x99\xd0?'
p3219
tp3220
Rp3221
s(g541
g12
I0
g541
g14
I2
tp3222
g483
(g93
S'f\x08\xd9\x01\xe9+\xc3?'
p3223
tp3224
Rp3225
s(g541
g14
I4
g541
g14
I3
tp3226
g483
(g93
S'\x9b\xfe\xcc\xcc*\xb2\t@'
p3227
tp3228
Rp3229
s(g541
g13
I2
g541
g14
I1
tp3230
g483
(g93
S'\x0e\x95g\xd8\\H\xf6?'
p3231
tp3232
Rp3233
s(g541
g15
I1
g541
g17
I0
tp3234
g483
(g93
S'\xc3\xdf\xd1\xaa\xf0\xcb\xe1?'
p3235
tp3236
Rp3237
s(g541
g12
I3
g541
g12
I0
tp3238
g483
(g93
S'\xb5\\M\xfa\xa3l\xea?'
p3239
tp3240
Rp3241
s(g541
g17
I4
g541
g12
I3
tp3242
g483
(g93
S'U\xba\xab\xb4\x8b\xcf\xed?'
p3243
tp3244
Rp3245
s(g541
g12
I4
g541
g16
I2
tp3246
g483
(g93
S'2/\xfa\xf2E\x8a\xfe?'
p3247
tp3248
Rp3249
s(g541
g17
I2
g541
g12
I3
tp3250
g483
(g93
S'\xef\n\xa3\xda\xdek\xe8?'
p3251
tp3252
Rp3253
s(g541
g12
I2
g541
g13
I4
tp3254
g483
(g93
S'\xd2\xa9\xf1j\x19d\xfe?'
p3255
tp3256
Rp3257
s(g541
g17
I0
g541
g15
I2
tp3258
g483
(g93
S'{\xeb\xc8\xde\xef\xb5\xd1?'
p3259
tp3260
Rp3261
s(g541
g16
I2
g541
g17
I3
tp3262
g483
(g93
S'\xa5\x7fhP\x0e\xac\x0c@'
p3263
tp3264
Rp3265
s(g541
g13
I0
g541
g13
I2
tp3266
g483
(g93
S'\xd8<\xd1P\xfeR\xf1?'
p3267
tp3268
Rp3269
s(g541
g16
I0
g541
g16
I2
tp3270
g483
(g93
S'3\xf1\xce\xf7oP\xee?'
p3271
tp3272
Rp3273
s(g541
g12
I2
g541
g14
I0
tp3274
g483
(g93
S'f\x08\xd9\x01\xe9+\xc3?'
p3275
tp3276
Rp3277
s(g541
g14
I2
g541
g16
I2
tp3278
g483
(g93
S'\xc0\xbe\xc7|Y\xe4\xf4?'
p3279
tp3280
Rp3281
s(g541
g14
I0
g541
g12
I3
tp3282
g483
(g93
S'0\xba\xa9o\x15n\xb3?'
p3283
tp3284
Rp3285
s(g541
g16
I4
g541
g17
I4
tp3286
g483
(g93
S'\x95\xa2\xe3\xd4/\xa7\x14@'
p3287
tp3288
Rp3289
s(g541
g16
I0
g541
g17
I2
tp3290
g483
(g93
S'\xfa\xd9X5\xaa\xb1\xeb?'
p3291
tp3292
Rp3293
s(g541
g17
I1
g541
g16
I2
tp3294
g483
(g93
S"#C^\x82'O\xf5?"
p3295
tp3296
Rp3297
s(g541
g12
I1
g541
g16
I4
tp3298
g483
(g93
S'\x1f\x7f\x1b\xcb\xb0\xb1\xf3?'
p3299
tp3300
Rp3301
s(g541
g16
I3
g541
g17
I4
tp3302
g483
(g93
S'4\xf1\x8b~\x9b~\x11@'
p3303
tp3304
Rp3305
s(g541
g15
I1
g541
g12
I3
tp3306
g483
(g93
S'\xbb\xce\x1d~M\x85\xba?'
p3307
tp3308
Rp3309
s(g541
g13
I3
g541
g13
I1
tp3310
g483
(g93
S'\x18s\xe1\xb8\xdd\xf6\x11@'
p3311
tp3312
Rp3313
s(g541
g12
I1
g541
g13
I0
tp3314
g483
(g93
S"'\xd9\x0f\xa5h\xd2\xdd?"
p3315
tp3316
Rp3317
s(g541
g16
I1
g541
g13
I3
tp3318
g483
(g93
S'dT\x8e\x16\x0c\xe6\xe6?'
p3319
tp3320
Rp3321
s(g541
g13
I2
g541
g14
I2
tp3322
g483
(g93
S'[\xec\x0e\x102\x9a\xf7?'
p3323
tp3324
Rp3325
s(g541
g12
I1
g541
g12
I4
tp3326
g483
(g93
S'%\xe3H\xee3\x92\x01@'
p3327
tp3328
Rp3329
s(g541
g13
I4
g541
g15
I0
tp3330
g483
(g93
S'\xff\xec\xf5\xf9G\xa6\xca?'
p3331
tp3332
Rp3333
s(g541
g12
I2
g541
g17
I1
tp3334
g483
(g93
S'h\x94\xca\xcd\xf4#\x05@'
p3335
tp3336
Rp3337
s(g541
g16
I4
g541
g12
I1
tp3338
g483
(g93
S'\xc3\xb6\xe5t\xfd\x9b\xd9?'
p3339
tp3340
Rp3341
s(g541
g17
I2
g541
g15
I2
tp3342
g483
(g93
S'm:\xab\x97=\x1e\xeb?'
p3343
tp3344
Rp3345
s(g541
g12
I0
g541
g15
I2
tp3346
g483
(g93
S'\xd6\r\x0fd\x16\x13\xc2?'
p3347
tp3348
Rp3349
s(g541
g14
I4
g541
g13
I1
tp3350
g483
(g93
S'?-\xb3\xab\xc3\xa3\xf5?'
p3351
tp3352
Rp3353
s(g541
g12
I1
g541
g14
I1
tp3354
g483
(g93
S'\x00X\xad\xf8<\xcf\xdf?'
p3355
tp3356
Rp3357
s(g541
g16
I1
g541
g16
I2
tp3358
g483
(g93
S'\xfe$\xf8M\xa5s\xfd?'
p3359
tp3360
Rp3361
s(g541
g12
I4
g541
g12
I2
tp3362
g483
(g93
S'`\xe5\xcf\xce5\xfa\x03@'
p3363
tp3364
Rp3365
s(g541
g15
I0
g541
g13
I2
tp3366
g483
(g93
S';\xa7\xad@5\xa6\xc3?'
p3367
tp3368
Rp3369
s(g541
g13
I1
g541
g17
I3
tp3370
g483
(g93
S'e\x98\x08C\x11Q\x10@'
p3371
tp3372
Rp3373
s(g541
g12
I3
g541
g13
I0
tp3374
g483
(g93
S"'\xd9\x0f\xa5h\xd2\xdd?"
p3375
tp3376
Rp3377
s(g541
g15
I1
g541
g13
I4
tp3378
g483
(g93
S'\xfe.\xdd8\xdc:\xcd?'
p3379
tp3380
Rp3381
s(g541
g12
I4
g541
g13
I2
tp3382
g483
(g93
S'\xd2\xa9\xf1j\x19d\xfe?'
p3383
tp3384
Rp3385
s(g541
g13
I4
g541
g12
I1
tp3386
g483
(g93
S'0\x89\n\x83\xed\x8e\xe6?'
p3387
tp3388
Rp3389
s(g541
g17
I4
g541
g17
I1
tp3390
g483
(g93
S'\x1f\x86\x14i\xb8\xb9\x07@'
p3391
tp3392
Rp3393
s(g541
g12
I3
g541
g12
I4
tp3394
g483
(g93
S'\x8a`\x00\x961f\t@'
p3395
tp3396
Rp3397
s(g541
g17
I1
g541
g16
I1
tp3398
g483
(g93
S"#C^\x82'O\xf5?"
p3399
tp3400
Rp3401
s(g541
g16
I3
g541
g14
I4
tp3402
g483
(g93
S'\xd2\xd0\xae\xc8\x1cx\xee?'
p3403
tp3404
Rp3405
s(g541
g16
I4
g541
g15
I0
tp3406
g483
(g93
S'\x83\x8c\x93\r0\xa6\xdd?'
p3407
tp3408
Rp3409
s(g541
g16
I0
g541
g15
I2
tp3410
g483
(g93
S'\x83\x8c\x93\r0\xa6\xdd?'
p3411
tp3412
Rp3413
s(g541
g15
I1
g541
g14
I1
tp3414
g483
(g93
S'\xa1\xb7\x0e|J\xbe\xc3?'
p3415
tp3416
Rp3417
s(g541
g12
I2
g541
g13
I0
tp3418
g483
(g93
S"'\xd9\x0f\xa5h\xd2\xdd?"
p3419
tp3420
Rp3421
s(g541
g16
I2
g541
g14
I3
tp3422
g483
(g93
S'\x17\xc6\x19c;\xce\xea?'
p3423
tp3424
Rp3425
s(g541
g16
I3
g541
g15
I0
tp3426
g483
(g93
S'\x83\x8c\x93\r0\xa6\xdd?'
p3427
tp3428
Rp3429
s(g541
g15
I2
g541
g13
I3
tp3430
g483
(g93
S'\x04\xfagg\xb7\x97\xea?'
p3431
tp3432
Rp3433
s(g541
g17
I1
g541
g14
I2
tp3434
g483
(g93
S'\xc2\xf1\xb1\xf3\rv\xef?'
p3435
tp3436
Rp3437
s(g541
g12
I1
g541
g17
I4
tp3438
g483
(g93
S'h\x94\xca\xcd\xf4#\x05@'
p3439
tp3440
Rp3441
s(g541
g14
I1
g541
g16
I4
tp3442
g483
(g93
S'\xfa\x97\xef\x11\x92\x80\xf4?'
p3443
tp3444
Rp3445
s(g541
g17
I3
g541
g15
I1
tp3446
g483
(g93
S',\xec>\x96\x8e\xe1\xe1?'
p3447
tp3448
Rp3449
s(g541
g14
I3
g541
g12
I1
tp3450
g483
(g93
S'1-\x9e\x1c=\x99\xd0?'
p3451
tp3452
Rp3453
s(g541
g12
I1
g541
g16
I0
tp3454
g483
(g93
S'6\x94N\x14"\xfc\xe0?'
p3455
tp3456
Rp3457
s(g541
g14
I1
g541
g15
I0
tp3458
g483
(g93
S'\xe7\xbfb\xe1\xf3\xf2\xc9?'
p3459
tp3460
Rp3461
s(g541
g17
I3
g541
g14
I3
tp3462
g483
(g93
S'\x99\xdc\xd4u\xdb?\xf6?'
p3463
tp3464
Rp3465
s(g541
g12
I3
g541
g17
I1
tp3466
g483
(g93
S'h\x94\xca\xcd\xf4#\x05@'
p3467
tp3468
Rp3469
s(g541
g13
I1
g541
g14
I2
tp3470
g483
(g93
S'\x0e\x95g\xd8\\H\xf6?'
p3471
tp3472
Rp3473
s(g541
g13
I0
g541
g15
I1
tp3474
g483
(g93
S'\xff\xec\xf5\xf9G\xa6\xca?'
p3475
tp3476
Rp3477
s(g541
g12
I2
g541
g16
I3
tp3478
g483
(g93
S'2/\xfa\xf2E\x8a\xfe?'
p3479
tp3480
Rp3481
s(g541
g17
I0
g541
g12
I3
tp3482
g483
(g93
S'\x91\x0c\x90\x9d[\xdc\xca?'
p3483
tp3484
Rp3485
s(g541
g14
I2
g541
g14
I1
tp3486
g483
(g93
S'~\x1a\xf8\xaa\x8f>\x01@'
p3487
tp3488
Rp3489
s(g541
g15
I0
g541
g17
I2
tp3490
g483
(g93
S'\xc3\xdf\xd1\xaa\xf0\xcb\xe1?'
p3491
tp3492
Rp3493
s(g541
g15
I0
g541
g16
I2
tp3494
g483
(g93
S'\xc8\xda\xd7\\_\x8b\xe1?'
p3495
tp3496
Rp3497
s(g541
g14
I1
g541
g12
I1
tp3498
g483
(g93
S'x\t\xdcR\x84\x1e\xd0?'
p3499
tp3500
Rp3501
s(g541
g12
I3
g541
g14
I0
tp3502
g483
(g93
S'f\x08\xd9\x01\xe9+\xc3?'
p3503
tp3504
Rp3505
s(g541
g15
I1
g541
g16
I0
tp3506
g483
(g93
S'\xc8\xda\xd7\\_\x8b\xe1?'
p3507
tp3508
Rp3509
s(g541
g13
I2
g541
g16
I3
tp3510
g483
(g93
S'D\xf1#|\x91C\xfe?'
p3511
tp3512
Rp3513
s(g541
g17
I3
g541
g17
I4
tp3514
g483
(g93
S'\xd2#\xe2\x8a5\xf2\x16@'
p3515
tp3516
Rp3517
s(g541
g15
I1
g541
g16
I4
tp3518
g483
(g93
S'}\xc0s+\xfds\xee?'
p3519
tp3520
Rp3521
s(g541
g12
I3
g541
g13
I4
tp3522
g483
(g93
S'\xe2]\x02l\xa5;\x01@'
p3523
tp3524
Rp3525
s(g541
g13
I2
g541
g15
I1
tp3526
g483
(g93
S'\xca2\xe8\xa7N\x19\xcb?'
p3527
tp3528
Rp3529
s(g541
g17
I2
g541
g13
I1
tp3530
g483
(g93
S'\x1d\xb0\x18B\xed\xf1\xf7?'
p3531
tp3532
Rp3533
s(g541
g14
I3
g541
g15
I1
tp3534
g483
(g93
S'\x1a]d\x95\xab\x16\xd2?'
p3535
tp3536
Rp3537
s(g541
g12
I2
g541
g12
I0
tp3538
g483
(g93
S'\xb5\\M\xfa\xa3l\xea?'
p3539
tp3540
Rp3541
s(g541
g12
I0
g541
g13
I3
tp3542
g483
(g93
S"'\xd9\x0f\xa5h\xd2\xdd?"
p3543
tp3544
Rp3545
s(g541
g16
I3
g541
g14
I0
tp3546
g483
(g93
S'o1v;\xb2H\xcf?'
p3547
tp3548
Rp3549
s(g541
g17
I4
g541
g17
I4
tp3550
g483
(g93
S'\xed\xb2\x19\xc2\xabq\x1b@'
p3551
tp3552
Rp3553
s(g541
g17
I1
g541
g17
I0
tp3554
g483
(g93
S'\xe7\x9a\x98\xdb\x06\xab\xf2?'
p3555
tp3556
Rp3557
s(g541
g17
I4
g541
g16
I0
tp3558
g483
(g93
S'\x99\x18\xe0j\xefN\xe0?'
p3559
tp3560
Rp3561
s(g541
g13
I3
g541
g17
I1
tp3562
g483
(g93
S'!\xa7\xe0~z\n\x08@'
p3563
tp3564
Rp3565
s(g541
g12
I1
g541
g17
I0
tp3566
g483
(g93
S'7)\xeek\xf5\x89\xf1?'
p3567
tp3568
Rp3569
s(g541
g14
I1
g541
g16
I0
tp3570
g483
(g93
S'\xce\xbb*4\xe4a\xd8?'
p3571
tp3572
Rp3573
s(g541
g13
I3
g541
g12
I3
tp3574
g483
(g93
S'\x1d\xf0,\xb7\xf9\xfb\xf1?'
p3575
tp3576
Rp3577
s(g541
g17
I0
g541
g14
I3
tp3578
g483
(g93
S'\x91\x16\xa7\xfd\xfb\xb7\xe2?'
p3579
tp3580
Rp3581
s(g541
g14
I0
g541
g14
I2
tp3582
g483
(g93
S'\xf0\x0fU\xce\xe2/\xeb?'
p3583
tp3584
Rp3585
s(g541
g13
I0
g541
g14
I3
tp3586
g483
(g93
S'vN^\x14\xfb\xb7\xdc?'
p3587
tp3588
Rp3589
s(g541
g16
I0
g541
g13
I3
tp3590
g483
(g93
S'\xafw&^\xbbm\xcc?'
p3591
tp3592
Rp3593
s(g541
g12
I2
g541
g15
I1
tp3594
g483
(g93
S'1\xba\xbd\x06\x97\xb5\xc4?'
p3595
tp3596
Rp3597
s(g541
g17
I0
g541
g13
I1
tp3598
g483
(g93
S'd\x8d\xf62\xb34\xdf?'
p3599
tp3600
Rp3601
s(g541
g16
I3
g541
g13
I0
tp3602
g483
(g93
S'\xafw&^\xbbm\xcc?'
p3603
tp3604
Rp3605
s(g541
g16
I0
g541
g14
I1
tp3606
g483
(g93
S'o1v;\xb2H\xcf?'
p3607
tp3608
Rp3609
s(g541
g14
I4
g541
g17
I1
tp3610
g483
(g93
S'K(\x1cf\xd9\xd1\x04@'
p3611
tp3612
Rp3613
s(g541
g15
I1
g541
g13
I1
tp3614
g483
(g93
S'\xe4\xde\xeb\xe4\x04\xfb\xc3?'
p3615
tp3616
Rp3617
s(g541
g14
I4
g541
g12
I3
tp3618
g483
(g93
S'L\xa9n\x95\x0c\x86\xdd?'
p3619
tp3620
Rp3621
s(g541
g12
I0
g541
g17
I3
tp3622
g483
(g93
S'7)\xeek\xf5\x89\xf1?'
p3623
tp3624
Rp3625
s(g541
g14
I1
g541
g13
I3
tp3626
g483
(g93
S'?-\xb3\xab\xc3\xa3\xf5?'
p3627
tp3628
Rp3629
s(g541
g16
I4
g541
g14
I4
tp3630
g483
(g93
S'\xc7\xed!\x17\xff\x10\xf1?'
p3631
tp3632
Rp3633
s(g541
g13
I4
g541
g16
I1
tp3634
g483
(g93
S'46\xda\xd3\x90`\xf2?'
p3635
tp3636
Rp3637
s(g541
g13
I1
g541
g16
I1
tp3638
g483
(g93
S'\xa7\x99\xb8\xbc\xdf\xfb\xf1?'
p3639
tp3640
Rp3641
s(g541
g12
I3
g541
g14
I4
tp3642
g483
(g93
S'*\xd3\xfe\xd7\x7f!\xed?'
p3643
tp3644
Rp3645
s(g541
g16
I3
g541
g12
I4
tp3646
g483
(g93
S'\x1br\xf3\x9dg\xf9\xe6?'
p3647
tp3648
Rp3649
s(g541
g17
I2
g541
g16
I3
tp3650
g483
(g93
S'\xa14zrb\xe2\x00@'
p3651
tp3652
Rp3653
s(g541
g13
I4
g541
g13
I3
tp3654
g483
(g93
S'\x85\xb8\xda;\x12\xf9\x1c@'
p3655
tp3656
Rp3657
s(g541
g17
I0
g541
g17
I2
tp3658
g483
(g93
S'\xe7\x9a\x98\xdb\x06\xab\xf2?'
p3659
tp3660
Rp3661
s(g541
g12
I0
g541
g12
I1
tp3662
g483
(g93
S'\xb5\\M\xfa\xa3l\xea?'
p3663
tp3664
Rp3665
s(g541
g16
I2
g541
g13
I3
tp3666
g483
(g93
S'\xea\xee\x8c\x8b\xdd\xda\xf2?'
p3667
tp3668
Rp3669
s(g541
g17
I4
g541
g12
I4
tp3670
g483
(g93
S'\xde4ZG\x9c\x99\xf1?'
p3671
tp3672
Rp3673
s(g541
g12
I2
g541
g12
I4
tp3674
g483
(g93
S'`\xe5\xcf\xce5\xfa\x03@'
p3675
tp3676
Rp3677
ssS'lockdown_fraction'
p3678
F0.5
sS'population'
p3679
g28
(g29
g30
Ntp3680
Rp3681
(dp3682
g34
g35
sg36
g37
sg38
g28
(g39
g30
Ntp3683
Rp3684
((lp3685
g43
(g44
(dp3686
g46
g47
(g48
(I0
tp3687
g50
tp3688
Rp3689
(I1
(I7
tp3690
g57
I00
(lp3691
S'age_group_1'
p3692
aS'age_group_2'
p3693
aS'age_group_3'
p3694
aS'age_group_4'
p3695
aS'age_group_5'
p3696
aS'age_group_6'
p3697
aS'TOTAL'
p3698
atp3699
bsg68
Nstp3700
Rp3701
ag43
(g44
(dp3702
g46
g47
(g48
(I0
tp3703
g50
tp3704
Rp3705
(I1
(I1
tp3706
g57
I00
(lp3707
VIle-de-France
p3708
atp3709
bsg68
Nstp3710
Rp3711
a(lp3712
g47
(g48
(I0
tp3713
g50
tp3714
Rp3715
(I1
(I7
I1
tp3716
g460
I00
S'\xe8U\x18\x00\x00\x00\x00\x00}\x97\x17\x00\x00\x00\x00\x00\x8a\t\x0c\x00\x00\x00\x00\x00^\x80A\x00\x00\x00\x00\x00L\x1c!\x00\x00\x00\x00\x00)\xc6\x1c\x00\x00\x00\x00\x00\xc2Y\xbb\x00\x00\x00\x00\x00'
p3717
tp3718
ba(lp3719
g43
(g44
(dp3720
g46
g47
(g48
(I0
tp3721
g50
tp3722
Rp3723
(I1
(I7
tp3724
g57
I00
(lp3725
g3692
ag3693
ag3694
ag3695
ag3696
ag3697
ag3698
atp3726
bsg68
Nstp3727
Rp3728
a(dp3729
g109
(dp3730
g111
g3685
sg112
(lp3731
(dp3732
g115
g116
(I0
I7
I1
tp3733
Rp3734
sg119
g3715
sasstp3735
bsbsS'capacity'
p3736
g489
sS'economic_value'
p3737
(dp3738
(g541
g16
tp3739
g483
(g93
S'\x06\x98z\xdf\xc3\xbbV@'
p3740
tp3741
Rp3742
s(g541
g17
tp3743
g483
(g93
S'P\xb6\xb4\xb9opW@'
p3744
tp3745
Rp3746
s(g541
g12
tp3747
g483
(g93
S'@\xe4\xe1\xa5\xa4`2@'
p3748
tp3749
Rp3750
s(g541
g13
tp3751
g483
(g460
S'\x00\x00\x00\x00\x00\x00\x00\x00'
p3752
tp3753
Rp3754
s(g541
g14
tp3755
g483
(g460
S'\x00\x00\x00\x00\x00\x00\x00\x00'
p3756
tp3757
Rp3758
s(g541
g15
tp3759
g483
(g460
S'\x00\x00\x00\x00\x00\x00\x00\x00'
p3760
tp3761
Rp3762
ssS'regions'
p3763
(lp3764
g541
asS'SEIR_parameters'
p3765
g28
(g29
g30
Ntp3766
Rp3767
(dp3768
g34
g35
sg36
g37
sg38
g28
(g39
g30
Ntp3769
Rp3770
((lp3771
g43
(g44
(dp3772
g46
g47
(g48
(I0
tp3773
g50
tp3774
Rp3775
(I1
(I9
tp3776
g57
I00
(lp3777
S'mu'
p3778
aS'sigma'
p3779
aS'p_ss'
p3780
aS'p_H'
p3781
aS'p_ICU'
p3782
aS'lambda_HR'
p3783
aS'lambda_HD'
p3784
aS'lambda_ICUR'
p3785
aS'lambda_ICUD'
p3786
atp3787
bsg68
Nstp3788
Rp3789
ag43
(g44
(dp3790
g46
g47
(g48
(I0
tp3791
g50
tp3792
Rp3793
(I1
(I6
tp3794
g57
I00
(lp3795
Vage_group_1
p3796
aVage_group_2
p3797
aVage_group_3
p3798
aVage_group_4
p3799
aVage_group_5
p3800
aVage_group_6
p3801
atp3802
bsg68
Nstp3803
Rp3804
a(lp3805
g47
(g48
(I0
tp3806
g50
tp3807
Rp3808
(I1
(I9
I6
tp3809
g93
I00
S'y\r\xe55\x94\xd7\xd0?y\r\xe55\x94\xd7\xd0?y\r\xe55\x94\xd7\xd0?y\r\xe55\x94\xd7\xd0?y\r\xe55\x94\xd7\xd0?y\r\xe55\x94\xd7\xd0?\xc1\x14\xf9\xac\x1bL\xd1?\xc1\x14\xf9\xac\x1bL\xd1?\xc1\x14\xf9\xac\x1bL\xd1?\xc1\x14\xf9\xac\x1bL\xd1?\xc1\x14\xf9\xac\x1bL\xd1?\xc1\x14\xf9\xac\x1bL\xd1?\x00\x00\x00\x00\x00\x00\x00\x00\x00\x00\x00\x00\x00\x00\x00\x00{\x14\xaeG\xe1z\xb4?{\x14\xaeG\xe1z\xb4?{\x14\xaeG\xe1z\xb4?{\x14\xaeG\xe1z\xc4?\x00\x00\x00\x00\x00\x00\x00\x00\x00\x00\x00\x00\x00\x00\x00\x00-C\x1c\xeb\xe26\xaa?-C\x1c\xeb\xe26\xaa?-C\x1c\xeb\xe26\xaa?\xfc\xa9\xf1\xd2Mb\xc0?\x00\x00\x00\x00\x00\x00\x00\x00\x00\x00\x00\x00\x00\x00\x00\x00\x92\xcb\x7fH\xbf}\x9d?\x92\xcb\x7fH\xbf}\x9d?\x92\xcb\x7fH\xbf}\x9d?\xfc\xa9\xf1\xd2Mb\xa0?\x00\x00\x00\x00\x00\x00\x00\x00\x00\x00\x00\x00\x00\x00\x00\x00;\xdfO\x8d\x97n\xb2?;\xdfO\x8d\x97n\xb2?;\xdfO\x8d\x97n\xb2?\xbaI\x0c\x02+\x87\x96?\x00\x00\x00\x00\x00\x00\x00\x00\x00\x00\x00\x00\x00\x00\x00\x00\x15\x8cJ\xea\x044q?\x15\x8cJ\xea\x044q?\x15\x8cJ\xea\x044q?y\xe9&1\x08\xac\x8c?\x00\x00\x00\x00\x00\x00\x00\x00\x00\x00\x00\x00\x00\x00\x00\x00\x9a\x99\x99\x99\x99\x99\xa9?\x9a\x99\x99\x99\x99\x99\xa9?\x9a\x99\x99\x99\x99\x99\xa9?;\xdfO\x8d\x97n\xa2?\x00\x00\x00\x00\x00\x00\x00\x00\x00\x00\x00\x00\x00\x00\x00\x00\xac\xad\xd8_vO~?\xac\xad\xd8_vO~?\xac\xad\xd8_vO~?\x19\x04V\x0e-\xb2\x9d?'
p3810
tp3811
ba(lp3812
g43
(g44
(dp3813
g46
g47
(g48
(I0
tp3814
g50
tp3815
Rp3816
(I1
(I9
tp3817
g57
I00
(lp3818
g3778
ag3779
ag3780
ag3781
ag3782
ag3783
ag3784
ag3785
ag3786
atp3819
bsg68
Nstp3820
Rp3821
a(dp3822
g109
(dp3823
g111
g3771
sg112
(lp3824
(dp3825
g115
g116
(I0
I9
I1
tp3826
Rp3827
sg119
g3808
sasstp3828
bsbs.